(dp0
S'betweenness_centrality'
p1
ccollections
OrderedDict
p2
((lp3
(lp4
S'N51211.graphml'
p5
a(lp6
F0.0007109651928502039
aF0.00018025595695841774
aF0.011966590543464356
aF0.0035420016727219787
aF0.0006232221445824798
aF0.0008291164619402511
aF0.005858058107955522
aF4.923684797488735e-05
aF0.00044645080159556926
aF3.3658066357550986e-06
aF7.3291099904445e-05
aF0.013077145482005033
aF0.00041884866408730114
aF0.0
aF0.001578487600312401
aF0.00044901875103136327
aF0.0002797462944785738
aF0.0014064797890548893
aF0.0024502958457526098
aF0.002341025306841367
aF0.015561017835804963
aF0.019420760992252963
aF0.0002768325908862133
aF5.1312026033092924e-05
aF0.0005630908866649552
aF0.004209670785017036
aF0.00040123758204816784
aF1.4901997529721087e-05
aF0.0005341279024740383
aF0.0010897300072407643
aF0.0011929137825213503
aF0.006125367546086096
aF1.4595363202970192e-05
aF0.000931041589953806
aF2.6125754268756802e-05
aF0.0008700355329065137
aF1.7292848151865035e-05
aF0.0005860541964380934
aF0.0004678827261477852
aF0.002905390268121257
aF0.0012789529641255423
aF0.0010315103192429299
aF0.00012201407804113948
aF4.577497024626934e-06
aF0.0010505574426072023
aF0.0005448219271330357
aF0.0
aF1.5993287948640237e-05
aF0.001618914872625964
aF0.0058135426345080855
aF0.004352032655234144
aF4.505385905731723e-06
aF0.001065146930930448
aF0.00010158666712818761
aF0.006629863802885851
aF3.6304730273120096e-05
aF4.465850755733594e-07
aF0.003172027996552998
aF0.003138266254571979
aF6.356490049541881e-05
aF0.0006388308229653485
aF0.0038788870655420866
aF0.02458584242485335
aF0.03527312338393371
aF0.0010182167978293494
aF0.0005500490726540488
aF0.0031910793073326384
aF0.0016388731725138317
aF0.0006188528559069467
aF0.0008923098489231366
aF0.0002673413100619458
aF0.00014062633921505918
aF0.0004539174754149769
aF0.006973144252180653
aF0.00501728793843102
aF0.0076977467039574515
aF0.0021543721391712243
aF2.018793559579058e-06
aF0.000623384685885814
aF0.00023605332791475496
aF0.017001017667058575
aF0.0014307798970180476
aF0.019639360852164355
aF0.00022538894260740454
aF0.0012186417052839457
aF0.015336824807474647
aF0.02439131763306462
aF0.0
aF2.2444840484097688e-05
aF8.133715823357286e-05
aF2.5029943747573814e-06
aF0.0003048740021251768
aF0.00011223971598185035
aF0.0
aF0.0
aF3.462541101672104e-05
aF0.0009555273530546762
aF2.0500883686036904e-06
aF0.0
aF0.0
aF0.0
aF0.0016768869329953527
aF0.0009309380590641446
aF0.0015137068175328147
aF0.00015776284626656104
aF0.00013994235152306537
aF0.00021875491836461443
aF0.004544786267066071
aF0.003727297531043138
aF0.00019900576663069822
aF0.00016731667372195115
aF8.459067661671223e-05
aF0.0003580366704756201
aF0.0007518751909863287
aF3.1143836891273177e-05
aF0.0011305947732074305
aF0.0002522892983409415
aF0.0007181935545672595
aF0.0015118520061045678
aF0.00025103769535037273
aF0.00043336740425286977
aF0.00026102976843724734
aF7.90531201040943e-05
aF0.0
aF1.2085222320407518e-05
aF0.001493652924266181
aF0.029327539499622253
aF0.0
aF0.0007063688587374761
aF0.0002462132768731784
aF3.406722944662534e-05
aF0.00030468541242177497
aF0.0014948066107036877
aF0.00232804204846019
aF0.0
aF0.0
aF2.391040093831104e-06
aF1.80950570740281e-05
aF7.3086086947825e-07
aF3.594380850992255e-05
aF0.0
aF1.6045753751305934e-06
aF0.0
aF0.0
aF0.00036332129666159584
aF0.0004404609223813152
aF2.6188145810039458e-05
aF0.0003834476650836218
aF0.0005025763165813236
aF5.076061654678817e-05
aF0.0004673482189613916
aF2.814191308291155e-06
aF0.0
aF0.0002797367923317372
aF0.0027252405267754595
aF3.091241286473087e-05
aF0.002219746656224484
aF0.0011585150961270667
aF0.0004109079823238799
aF0.0004930117984263633
aF0.0007348106727178165
aF0.008912818190790815
aF0.00945338149321572
aF7.0346892162766516e-06
aF0.0024987072761908204
aF0.0029879518645585645
aF0.0
aF1.8974862343299475e-05
aF8.169844277997779e-05
aF1.764867320227779e-05
aF0.015975322674520485
aF0.0003780516764542116
aF1.982844926931796e-06
aF9.486565883013256e-07
aF0.0
aF0.0
aF0.00035768142472412294
aF0.00015462220108155412
aF0.00020361082886216603
aF2.534779851595648e-06
aF0.003576197760794829
aF0.008124362657547022
aF5.057068764169884e-06
aF0.0002688934958331067
aF2.9491897777614806e-05
aF0.0001096980096871953
aF0.00024961717707523804
aF0.0025940037893658363
aF0.005167735238530303
aF0.000686786744410257
aF0.0018497624677567233
aF0.002233695457583122
aF0.0020089213742159385
aF0.004511894419826003
aF9.900824529533898e-05
aF0.0005717164025474037
aF0.00012369383108706958
aF2.98143394589946e-05
aF0.0006455856941148658
aF0.0007270813497472701
aF2.055512286708253e-05
aF0.0
aF3.190376714133924e-06
aF4.577497024626934e-06
aF0.00015041077711981527
aF0.00026539088275820866
aF0.0012009865551960257
aF0.0
aF0.0002299035467931241
aF0.005391165952670202
aF0.0
aF0.00046040283982132826
aF0.017886735007640348
aF0.000794295273510522
aF0.00915881575757033
aF0.01883510033949825
aF6.064429687353024e-05
aF0.0013819743562785587
aF0.0
aF0.0
aF0.0022349032698264354
aF0.0024373136736379505
aF0.0
aF4.540118055624214e-06
aF0.00022637248729973205
aF9.154994049253867e-07
aF0.0
aF7.070281909897559e-05
aF0.00012230479141235798
aF0.0006983901549733172
aF0.0006291548528824929
aF0.011448338256469816
aF0.0016608762270472442
aF0.0003355553161395515
aF0.0003484724993189902
aF0.010807838213325573
aF0.01545318102649697
aF0.009567326944005694
aF0.006472774914933644
aF1.7114907483242962e-05
aF3.2969793611788525e-05
aF1.2824257537248473e-05
aF0.0003655038552779562
aF0.0010621890787863748
aF0.00014480986614820782
aF0.001413439760811194
aF0.00010122299158312122
aF0.0016217655078890481
aF0.00038869972991018037
aF0.000236468372321927
aF0.0022455676559839976
aF0.0005836408429105944
aF0.0012174907859230008
aF0.0018533721397641495
aF0.0002065242588346118
aF0.0011435756762644268
aF6.0562426208175585e-05
aF0.0007174979860766343
aF0.0003239985070766195
aF0.0005565560886630034
aF0.0028419719538854446
aF1.4607329780676704e-05
aF0.00018992067585799226
aF0.0
aF0.0002797613861792605
aF0.0
aF0.0
aF0.007289518288250086
aF0.00542070321880738
aF2.372919999878637e-05
aF4.384760410493465e-05
aF0.02972619803662903
aF0.019466748519137086
aF3.8145808538557783e-07
aF8.38641888490831e-06
aF0.0029836721743398053
aF0.0070067099419723064
aF0.006828982723940003
aF0.013632781993772033
aF9.733966861183187e-06
aF4.2077672483183455e-05
aF9.504143939867998e-05
aF0.006385024847380106
aF0.00016547866343974223
aF0.01782160742121441
aF0.0
aF8.243164953791221e-05
aF0.0006096516496430588
aF7.272757748117704e-05
aF0.001709505961229483
aF0.0022700813856108525
aF0.00026912968872202337
aF0.0028087214445796176
aF0.0
aF0.024544169555180805
aF0.0002500565507664189
aF3.683337932170671e-06
aF0.0017816771520632344
aF0.0005364892445550618
aF0.00019308682979434313
aF1.866789943252197e-05
aF0.0
aF7.74064742248066e-06
aF5.847278948928658e-05
aF3.4255910757273957e-06
aF0.002099151603384049
aF0.001642000858723228
aF0.0025229306408733635
aF1.270622867816429e-05
aF2.8255770789611936e-05
aF0.0023840975836698255
aF0.00015757518154532315
aF0.0015605666027706771
aF0.00017959923545104352
aF0.05569781307690884
aF0.04228592672993396
aF0.0004625627190451836
aF0.0014448397247483382
aF0.0019278344444041405
aF0.0010502018852987626
aF8.788632622937254e-06
aF4.046446368048268e-05
aF0.0001058923711656658
aF0.04526081998023926
aF0.0007273348185564164
aF0.0012274062173121608
aF0.00016513182438909256
aF0.0
aF0.0001354193927077142
aF0.0008177165610167588
aF0.0003454816154823883
aF0.0002644072497478992
aaa(lp7
S'N51221.graphml'
p8
a(lp9
F0.0004891002586527856
aF0.001496682941332024
aF0.011751497771826701
aF0.005586932081289763
aF0.0014836411845456142
aF0.0021557733870439886
aF0.0012018532266722369
aF6.868739382853414e-05
aF0.0001171280727283319
aF0.0
aF3.833205870812526e-06
aF0.005041944588873419
aF0.006116165012444913
aF0.0
aF0.0008557830211469885
aF0.0008505353256271012
aF0.0003086186193851148
aF0.00011601779498643304
aF0.0010838746840887532
aF0.0010382033862131742
aF0.01652373070940925
aF0.008175335563536461
aF4.238413732771583e-05
aF1.2412631452452917e-05
aF0.00041684470851776484
aF0.0004806625023123195
aF0.0
aF0.00013926636879462272
aF0.0001420782318631171
aF0.0008501757117345342
aF0.001274524766563378
aF0.0033629037336155372
aF4.7764079740058115e-05
aF0.0006231740986308136
aF1.0692241689174254e-05
aF0.00017886435636184754
aF1.3656366270073493e-05
aF0.007218568978957666
aF7.12589935397294e-05
aF0.0024778186361118764
aF0.0027392738859318257
aF0.0035848612110866867
aF0.00015213761614859885
aF1.306442394055687e-05
aF0.002399294705046815
aF0.0009886542712306415
aF0.0014287093423170226
aF9.896657894081719e-05
aF0.01430778186799035
aF0.019415462566434685
aF0.004806781487579515
aF0.0
aF0.0001809321470368563
aF7.129266396086279e-05
aF0.003707828043707793
aF1.7961098489053023e-05
aF0.0
aF0.002954732063614356
aF0.0016141714047239175
aF1.2146059362803044e-05
aF0.0016234468398020742
aF0.00405552493266518
aF0.026571995747488777
aF0.03237314365672675
aF0.00015067579558953885
aF8.90996141476278e-05
aF0.005293725288805697
aF0.004008007886863139
aF0.0005316159622857716
aF0.0005281719617026936
aF0.0002926791888323045
aF0.00033075144679064697
aF0.008802128474695357
aF0.002946791288880279
aF0.0023988141909621606
aF0.004141014082886578
aF0.0018902151511896517
aF0.00014093329750670478
aF0.004230362422806756
aF0.0004211182895285608
aF0.0068106379519142736
aF0.0009955073060807563
aF0.026166118973469623
aF0.00020187993388384826
aF0.00014540725098965016
aF0.01849502497863337
aF0.009382098457245726
aF0.0
aF0.0
aF8.457338347807888e-06
aF2.9400636594716286e-05
aF0.00047099714508793387
aF1.5130985308479228e-05
aF0.0
aF0.0
aF0.00018917799765882378
aF0.0001063938798259949
aF7.274865516986857e-05
aF0.0
aF0.0
aF0.0
aF0.0015090430464286542
aF0.0014284985180613194
aF0.0002717113491378827
aF0.00040987260988332064
aF8.512399571945242e-06
aF4.197059534219422e-05
aF0.0021884287214964855
aF0.0016889515246743304
aF0.0007768186748847867
aF8.817668970758734e-05
aF7.497587870693221e-06
aF0.0015199056265150607
aF0.0037003512556236045
aF0.0013797341434077836
aF0.005273906097534026
aF0.004504776058189587
aF0.0011501831395443359
aF0.0014333605116313378
aF0.002125397267807182
aF2.658214276363063e-05
aF0.00029163620094407015
aF0.0009238119754244944
aF8.692322337970205e-06
aF5.302827846831187e-05
aF9.426486156409973e-05
aF0.009411078687809032
aF0.0
aF0.00022006738134111323
aF0.00010492852539244359
aF0.000982759287289267
aF0.00029129197631135934
aF0.00251377617889685
aF0.0012471201953040243
aF0.0
aF0.0
aF7.116746102950507e-06
aF4.784448136703594e-06
aF0.0
aF4.467796660202323e-06
aF9.324530611884165e-05
aF0.0
aF0.0
aF1.008015936041527e-06
aF1.6749597692003243e-06
aF1.5018857455044883e-05
aF0.000100339950495442
aF0.0016110286015548275
aF0.0006500948554892015
aF0.00022047363048110493
aF0.0005718726906311279
aF0.0
aF0.0
aF5.6937053828898994e-05
aF0.0009364546550881946
aF0.005715312978740777
aF0.001463770036361724
aF0.0006848462514203701
aF0.00021567173625502774
aF0.00030262909839022046
aF0.0019367977126725545
aF0.011346462346510041
aF0.00861192583869315
aF0.0
aF0.006574512562079695
aF0.0037007303386807316
aF0.0
aF7.522007402311686e-05
aF2.7533035574158242e-05
aF3.1256277681812535e-05
aF0.018063546415165086
aF0.00022329289855509054
aF0.0
aF7.00695113231661e-05
aF0.0
aF8.919457648133424e-05
aF0.004298656459315576
aF0.006570262728352262
aF0.0002573646408146201
aF1.4843703252237157e-05
aF0.004915144427334623
aF0.0031624145464526146
aF0.001819927306532489
aF6.356900985954534e-06
aF4.480117820195524e-05
aF0.00010502059048314217
aF0.00036298340350280196
aF0.0016028374605661583
aF0.0033790961266194717
aF0.00018691198276001654
aF0.005452674012652951
aF0.0012570751983164894
aF0.003062212613765502
aF0.0006074672693978401
aF0.0008408654274375032
aF0.0004054039903959615
aF0.0001711520832983086
aF9.996491492364786e-05
aF0.0015095320262844222
aF0.008537083829583467
aF0.0
aF2.034443122056415e-06
aF0.00017075631051883584
aF0.0
aF1.922315288893651e-05
aF5.014314049445799e-06
aF0.0013782440313680618
aF0.0
aF3.551635721108e-05
aF0.002954888410860201
aF0.0
aF3.6708100596655987e-05
aF0.013051390951625661
aF0.0021546669406037533
aF0.015096643932877319
aF0.008204369648796842
aF0.0006304280955176345
aF0.00039388900847319385
aF4.451200174119242e-05
aF0.0
aF0.006247209091836829
aF0.0020677602056773737
aF0.0
aF0.0
aF2.8743521504361805e-05
aF5.879069164938521e-06
aF1.0517278445007117e-05
aF6.81656911497762e-05
aF0.0003294292565233057
aF0.0008413925821519584
aF0.00036124524301568657
aF0.02315287916621046
aF0.002125018108583928
aF0.00018454815904127614
aF0.00023651453187369781
aF0.0026343835880016796
aF0.007202674301347323
aF0.010405594148252695
aF0.005346902701632191
aF0.0008920215169379829
aF3.3568311513930845e-06
aF1.524241440546426e-05
aF0.00032166200871023865
aF0.004957437459527278
aF0.00023474866884486037
aF0.00035893374739618734
aF0.0014160266856136571
aF0.000924350081138037
aF0.00103619068802161
aF2.4405296152974754e-05
aF0.003786544762422721
aF0.00048251632953839424
aF0.0005315597276514605
aF0.0023879175559335486
aF0.00040309093787202076
aF0.0005398433683831795
aF9.648522268421334e-06
aF6.412736954356887e-05
aF0.00024267364202287947
aF0.002008974118307383
aF0.002237175225117718
aF0.00015486801538791315
aF5.078016368188094e-05
aF0.00025101245813913324
aF4.662029468544408e-05
aF6.103329366169245e-06
aF0.0
aF0.009647676536856869
aF0.006015331407740718
aF3.390795567302265e-05
aF6.963167374992347e-06
aF0.04958999170622698
aF0.02667737239003725
aF3.7734076001951125e-06
aF8.36572472517813e-06
aF0.003309344979469204
aF0.0051760556213904085
aF0.007326731254583658
aF0.008435999564268363
aF0.0
aF3.1604189531519674e-05
aF6.391313257566889e-05
aF0.0031103238297136536
aF7.767152168421596e-06
aF0.02835984753676595
aF0.0
aF0.00024530166568307286
aF6.836245982556905e-05
aF2.392056760922872e-06
aF0.00015892388030963072
aF0.0011303903919821724
aF0.0001977990257534804
aF0.012038385300055451
aF0.0
aF0.020695279432958843
aF0.0009354053530706651
aF0.0005858677945801792
aF0.0012570866209708467
aF0.0003167082535961341
aF4.050194775719149e-05
aF9.722506523680346e-06
aF2.095921434228262e-06
aF1.5866628667865232e-06
aF3.264247800229631e-05
aF1.945492878310342e-06
aF0.00011011401167084644
aF0.0014933289254066891
aF0.002814641720388228
aF6.574002802904705e-05
aF7.982481722384961e-06
aF0.00012580592842992476
aF1.027158261189374e-05
aF0.006264875491476711
aF0.007878179773618021
aF0.04729352598764799
aF0.03541950169175279
aF9.731732312253125e-06
aF0.00029603139170992376
aF0.004879372540628046
aF0.002482414569084278
aF0.0002632522940170882
aF2.7921682352608152e-05
aF0.0008625000853527047
aF0.029445763516713304
aF0.0012528475165975287
aF0.0022671793751238827
aF0.0
aF0.0
aF0.0010163541118697705
aF7.366168696286017e-05
aF0.0001327560764291003
aF0.0002647435992873275
aaa(lp10
S'N51231.graphml'
p11
a(lp12
F0.0010227048830180505
aF0.00011136950839109898
aF0.012308290881652542
aF0.023038465683773993
aF0.0006834187117482392
aF0.005958983456645277
aF0.00041662403483480034
aF2.9425699776757794e-05
aF4.621492247345812e-05
aF4.577497024626934e-06
aF0.0
aF0.015185669259810585
aF0.0024418886801820944
aF0.0
aF0.0013475921874090131
aF0.000430079653319261
aF0.0008361753852908745
aF0.0007329756140187411
aF0.0039230038386760605
aF0.003363297873083933
aF0.008780291423333994
aF0.00781825612036927
aF0.0003490672607865428
aF0.00012074057941394248
aF0.0010666740395621627
aF0.00170927217232866
aF2.040255816690862e-06
aF0.00010837214787677056
aF0.00018722121560983094
aF0.0005963762363263722
aF0.0012957329211711137
aF0.00364982122435931
aF0.0002888971889492776
aF0.0035716836800229385
aF0.00014209099726446176
aF0.00012519140476387503
aF2.010124575846564e-05
aF0.004167666592039899
aF3.424707290678265e-05
aF0.006551983001332083
aF0.002180161825370184
aF0.0064767215767584235
aF0.0009198209898543895
aF0.0
aF0.0005001915815348107
aF3.3994784452174314e-05
aF0.00015907236517458007
aF3.3290887451832246e-07
aF0.003927301876040895
aF0.008659204103367428
aF0.007251537180506155
aF0.0
aF6.463553343840426e-05
aF0.00021561832192731222
aF0.0042178255528733215
aF6.369594667707775e-05
aF0.0
aF0.0005382271353478244
aF0.0015991157996468855
aF5.5437970538571254e-05
aF0.0009398580793450373
aF0.00027278303238627836
aF0.01918001823645983
aF0.013923503924343363
aF0.00021332569103995813
aF7.190113646327276e-05
aF0.01289946102099146
aF0.003947979112851229
aF0.0006738990976465057
aF0.0011704678576198997
aF0.000702476303643198
aF0.0001256788057697278
aF0.0005435952662273046
aF0.015718072139016746
aF0.0012665185837889476
aF0.0036750579889613362
aF0.0024846207908257333
aF0.0
aF0.00010992492227851617
aF0.00029429536421542374
aF0.03189622750585739
aF0.0006497265546848211
aF0.02069119439532976
aF0.0005638764438310514
aF3.305838643306489e-05
aF0.017820045501308057
aF0.028161389828543975
aF0.0
aF8.29658839965749e-05
aF0.00010048247222832233
aF2.8893551264821797e-06
aF3.0731105680868585e-05
aF0.00028529453525220796
aF0.0
aF0.0
aF7.682699167038973e-05
aF0.00033394239615041206
aF0.0
aF3.0780488616421385e-05
aF0.0
aF0.0
aF0.0020113980664390406
aF0.0006931111721478491
aF0.0010137389789812825
aF0.0002835129563922933
aF2.655691881861396e-05
aF0.00012315382070260427
aF0.006373425313977283
aF0.0015795830938813533
aF0.0009845819138940314
aF0.0008751528291912202
aF1.6010075782336797e-05
aF0.0017200822309038717
aF0.0006987234679590675
aF2.579274403621775e-05
aF0.0036660547518315213
aF5.055621462833937e-05
aF0.0020379735037827614
aF6.494099853597472e-05
aF0.0023348461298190962
aF7.471112217157895e-05
aF0.00012880405995021934
aF0.0
aF7.323995239403094e-07
aF9.037923331494017e-05
aF0.00039730284799381805
aF0.028159643101373023
aF0.0
aF0.00012597155173036103
aF0.00015812607627763674
aF2.3418921189587804e-05
aF0.0007457915912599441
aF0.0008570715567053688
aF0.0018814574168150365
aF0.0
aF0.0
aF0.000282429624003931
aF0.0
aF4.161360931479031e-07
aF0.0
aF1.6531575901241502e-05
aF6.539281463752763e-07
aF0.0
aF8.426026071194201e-06
aF0.00016428818222449128
aF0.00012082223465581055
aF8.7786327071043e-05
aF0.0006746901072723219
aF0.0002071533231229433
aF0.005950809915106488
aF0.00019340325550463598
aF3.036394651308135e-05
aF4.948645432029118e-07
aF3.4112712617529984e-06
aF0.0015769274832285046
aF0.00044834668814199295
aF0.001339026153814125
aF4.7010278678303164e-05
aF0.003672089413758577
aF0.001264564700037801
aF3.500670206537029e-05
aF0.006425263576814216
aF0.003854256823304163
aF0.0
aF0.0004244150895390628
aF0.0023311708811890757
aF0.0
aF2.1257904861463888e-05
aF0.00011250500364978349
aF0.00021535618458403644
aF0.020961457012244566
aF3.479314043872515e-05
aF8.521561610555182e-05
aF9.613532454933418e-06
aF4.010382027486221e-06
aF2.3337535996040805e-05
aF0.00029702848947186936
aF0.00028591681118922874
aF0.00011977541744854188
aF1.3534058050595875e-05
aF0.0025021029012775083
aF0.0018793226762907694
aF3.941827394554346e-05
aF9.702686158634617e-06
aF5.913144906785797e-05
aF0.00020806199860641249
aF0.0001256270648864303
aF0.0030205065056424026
aF0.0019498719318369378
aF0.0005820614464604145
aF0.005947095220456151
aF0.0018070233830408747
aF0.0013893593603740658
aF0.005299587199237453
aF0.00014704133785413916
aF8.634172710122243e-05
aF0.0002341563683443928
aF2.060915581526344e-06
aF0.0014537301848090785
aF0.0009882901784633916
aF1.1135115269482852e-05
aF4.577497024626934e-06
aF0.0
aF0.0
aF0.000747367295550186
aF4.600589139937841e-05
aF0.0029321351640234595
aF0.0
aF0.00020662528086484415
aF0.005582389635643218
aF0.0
aF0.0003011226130634665
aF0.018846496837423916
aF0.001018415099781658
aF0.008414907212978849
aF0.016407383844796276
aF0.0008917719652614869
aF4.803176410175953e-05
aF4.621503649830092e-06
aF0.0
aF0.0013647786190641002
aF0.0007555543935803177
aF2.064267230777631e-06
aF0.0
aF5.524374313080468e-06
aF1.7591582243572476e-05
aF9.362476023867632e-06
aF3.5941463377657324e-05
aF4.655566578560537e-05
aF0.004368110444439218
aF1.6541789174853277e-05
aF0.013956057060501494
aF0.002092533599692969
aF1.128597716269095e-05
aF0.0005528990682583755
aF0.007211497067947448
aF0.004849136098605111
aF0.009036881398496502
aF0.009464291620648706
aF2.9139637763642153e-05
aF0.00022282381760849448
aF8.405134215888801e-05
aF0.0003068864427965281
aF0.0011671702217064253
aF0.006424708752126187
aF0.0005131150736715644
aF0.005440534900586866
aF0.0003399468042649565
aF0.0022274288882693106
aF0.0007244993313689756
aF0.0016318504386956332
aF0.00012288366109218442
aF0.0008807828233091367
aF0.00438663461915758
aF0.0004520654850080474
aF0.002885827458914968
aF0.0002445460974420795
aF9.245884296768299e-05
aF0.0007088931390867122
aF0.0033990225705047344
aF0.004239892915569336
aF5.745934135517302e-05
aF0.0004069353713828848
aF3.0640217841788246e-05
aF4.243506381561658e-05
aF0.0
aF0.0
aF0.010610240826394326
aF0.0032878630698436645
aF0.0002657785054965411
aF0.0001877505390264613
aF0.04741387462439676
aF0.05105604469823863
aF0.0
aF7.120550927197453e-07
aF0.0031569857113940337
aF0.004340614662713432
aF0.004915839568956419
aF0.006574426372099985
aF2.8314627476526467e-05
aF2.30119806191206e-05
aF2.6188364354133155e-05
aF0.002140033881444871
aF2.1889856972985708e-05
aF0.03355666580244005
aF7.434048093508323e-05
aF8.038048472795516e-05
aF0.0011129195999780193
aF3.738203756795608e-06
aF0.0012493423422908411
aF0.003830946499646872
aF0.00029166699192673785
aF0.0071520614762598436
aF0.0
aF0.01870730656185609
aF0.00019071837794354794
aF0.0
aF0.0003365533065381859
aF0.0002595096851210434
aF0.00010707241476673567
aF6.695609938966908e-05
aF1.0344612307396964e-05
aF0.00023070331904130137
aF5.3410461899916875e-06
aF0.00014418876272468168
aF0.00020357934043785278
aF0.0005922629510526738
aF0.0008437394687334121
aF1.1725257904167022e-05
aF7.334690902823056e-05
aF0.001126905708118678
aF6.92763126450896e-05
aF0.00036050394611217214
aF0.00017749603764942567
aF0.029156751119122356
aF0.03653433676275247
aF0.002688903105628352
aF0.0008959903228695404
aF0.001680969579443854
aF0.0009771595827514183
aF0.0
aF2.0250455509543914e-06
aF0.00028714254299474893
aF0.03293579540737453
aF0.00731215481086059
aF0.0010193991536625864
aF0.0004544250118304139
aF0.0
aF0.00012348855565622892
aF0.0013149038812306111
aF2.1749548809028053e-05
aF0.0002019151706423755
aaa(lp13
S'N51383.graphml'
p14
a(lp15
F0.00016079365977230616
aF1.9459117134326484e-05
aF0.0013249703888277885
aF0.0056432858268341156
aF0.00031346494043981457
aF0.0005249971286597527
aF0.006430843814894504
aF8.740463778052512e-05
aF0.00020665865937089282
aF8.388513159914643e-06
aF6.33758051003849e-06
aF0.004501716946384116
aF0.007212634447196198
aF0.0
aF0.00022778913632841763
aF0.0008444253905633447
aF0.00021040486511819063
aF0.00036378184173973616
aF0.0016510245726569811
aF0.0012004254333977983
aF0.005551578136519651
aF0.0030082560243863653
aF0.0002735918597839383
aF0.00016654686717620115
aF1.501336927065459e-05
aF0.0
aF0.00019931261085131296
aF3.098345920322546e-05
aF0.006549848577386704
aF0.008279162166743117
aF0.0007301122917527272
aF0.0019564296674081326
aF7.937523248302988e-05
aF0.006259538293645784
aF0.00031840622212365007
aF6.995125515255675e-05
aF1.8352475160521095e-06
aF0.0010671869587416795
aF0.00016169192807617607
aF0.0072078861569115525
aF0.0010355711945671095
aF0.0024922527466423442
aF2.0863111492291348e-05
aF7.119971382241869e-06
aF0.0003579848745093582
aF6.543318434142435e-05
aF0.0019761566033303494
aF0.0001361452466888015
aF0.008988025975359148
aF0.008357746897280813
aF0.006111110373774052
aF3.521151557405334e-07
aF0.00034060762022474953
aF0.00016383740896785582
aF0.006350481304666229
aF0.0
aF0.0
aF0.001660393397585484
aF0.003153394116808048
aF0.0
aF0.0007855604549725837
aF0.0013859035111270432
aF0.01889458527269647
aF0.012586034789090735
aF9.68669041571168e-05
aF0.0002441800348170279
aF0.007994988019581165
aF0.007628510329485625
aF0.0014470442602460497
aF0.0004890146487633378
aF0.0007407525812137544
aF6.415059303397112e-05
aF0.0003968566154518162
aF0.0008028818547482772
aF0.001864262884572804
aF0.002348901713204393
aF0.0018482499934416054
aF0.000285569444255652
aF0.0013487761040828512
aF0.009708317060332297
aF0.01230504779950191
aF1.5285027293835788e-05
aF0.008411984765073105
aF1.1820415948784954e-05
aF6.607665167356719e-06
aF0.024639101091678512
aF0.018306516818326877
aF0.0
aF9.55350032235035e-05
aF0.00029276112428580284
aF4.4735690349358304e-05
aF0.0026016236240146953
aF0.000611115559002501
aF0.0
aF1.1443742561567335e-06
aF5.8515776271271836e-05
aF1.838205872278847e-05
aF0.00010467645612777952
aF0.00029140123055505036
aF0.0
aF0.0
aF0.0028606091606879947
aF0.0019555414193725314
aF0.00027828499030874176
aF0.00011894166343216853
aF0.0006623908378362032
aF0.0002387954730567621
aF0.0009348013064738828
aF0.00031423680804249876
aF0.0005980943948390358
aF0.002066428878593333
aF1.2691352100129683e-05
aF0.00014632951238476063
aF0.0011729230999264094
aF0.000125715789869935
aF0.001130325702919152
aF0.0012378761082420503
aF0.0060896297960364365
aF0.00022670125668781054
aF0.0004442370987521852
aF0.00010311039682606197
aF0.0013138820876059287
aF1.4726487142675386e-05
aF0.0002157933970094009
aF0.00011769568124726009
aF3.191573437421975e-05
aF0.02561973184808999
aF0.003044318780406663
aF0.0019309124042672968
aF0.0010772859737894814
aF0.00012947939154078127
aF0.0005265134900262211
aF0.0009008212168697302
aF0.005171045304081808
aF0.00019129937382920148
aF0.0003999909945015662
aF0.0002304903895613794
aF8.87940879009588e-05
aF1.72523018498355e-05
aF2.44534848528665e-05
aF2.3906119942167822e-05
aF2.9642231201779007e-05
aF0.0
aF2.005723695694381e-05
aF5.652877196441324e-05
aF4.340229563192869e-05
aF4.77987935769773e-06
aF0.00012329142654110401
aF0.0014840479769793388
aF0.0005132231850623946
aF9.478717300890498e-05
aF0.0
aF0.0
aF0.0002013729076806251
aF0.0008007353988028411
aF0.005404982393459936
aF0.014137133770938812
aF0.00014116193034638478
aF0.000193722708763334
aF0.0012311090868077456
aF0.001472002796665139
aF0.0015767698289417013
aF0.004781478781404729
aF9.628962037492958e-06
aF0.0010970617876192533
aF0.001208102623297229
aF8.770530054509909e-05
aF1.527280588164365e-05
aF0.0014223543158610377
aF0.0001265463739212808
aF0.02121001798547521
aF0.00011789580055945499
aF0.0
aF7.1355529030661e-06
aF6.268386670825188e-05
aF0.0010368928766981893
aF0.00045150053327977014
aF0.0010907824555440601
aF1.1189437171310282e-06
aF0.0
aF0.004396851805997564
aF0.003261597095250171
aF0.0004970651794126658
aF2.6075731161986072e-05
aF0.000882787756694005
aF2.852012739435005e-05
aF0.007185828114054916
aF0.0012039084593456636
aF0.0018295517128256219
aF0.00027433915567697507
aF0.01038370929365479
aF0.005701238784538102
aF0.0008473817692093488
aF0.001284336532317068
aF8.368925645959148e-05
aF0.0
aF5.452451236321181e-06
aF9.005455180274896e-05
aF0.002104987368754184
aF0.006820885482963084
aF1.516035149032891e-05
aF5.402709149651908e-05
aF3.6956295986901534e-06
aF6.427498874628784e-07
aF0.0016538770754615125
aF9.026535993095298e-05
aF0.0016382829635087303
aF0.0
aF0.0002205927984596453
aF0.0008419885510024455
aF0.0
aF0.0006362084850079423
aF0.006355658608403762
aF0.00488668205349138
aF0.006804844560802558
aF0.01410829956721258
aF0.0005386687950848976
aF0.0009889312730762788
aF1.762456241494163e-06
aF2.90634731722345e-07
aF0.0008236855923726578
aF0.0015997985563057564
aF0.0
aF0.0
aF0.0003815890468678714
aF2.3688580473281158e-05
aF1.1000423440350478e-05
aF5.9514664960989205e-05
aF0.0005118101152629794
aF0.0006037089530775069
aF2.7258269109412393e-06
aF0.022166808052419124
aF0.0013788585351035602
aF4.519323382976852e-05
aF6.229941499282267e-05
aF0.0006449489709873244
aF0.0022533069537865984
aF0.011709403456257827
aF0.010696026181480314
aF3.6775355063423236e-05
aF1.252254954544642e-06
aF4.141227557301341e-05
aF0.0007530608753534286
aF0.0021679843782634704
aF0.0017306626491350174
aF0.0009167847006627839
aF0.002520635775198198
aF0.0003579046035336727
aF0.0012841642257642653
aF3.697026121048586e-05
aF0.0005838479086259704
aF0.00048553890000807386
aF0.003258114599902145
aF0.003057480724254482
aF3.97950387888238e-05
aF6.975279213369226e-05
aF3.042367352770427e-05
aF0.00020797741692232477
aF0.000321345095083425
aF0.001815671079694723
aF0.0013599088904999754
aF8.840732930143567e-05
aF1.4809874593326799e-05
aF0.00017537531696847278
aF0.00023342714534733147
aF6.023558072101212e-05
aF0.0
aF0.0029082779761077557
aF0.0013128088061854083
aF0.000799992621920706
aF0.0019849726145412206
aF0.04345306481321822
aF0.03369501059479486
aF3.54844755852414e-05
aF4.514119461824462e-05
aF0.017512842852113075
aF0.0070098370004521675
aF0.0016446401629361268
aF0.0020387463170702808
aF6.143479991077601e-06
aF9.058968455322255e-05
aF0.0
aF0.0009011380679913559
aF6.915352808894307e-05
aF0.016140280413432087
aF0.004610212462877989
aF0.0016959227877816534
aF0.0007355793998955367
aF0.00033624460397032327
aF0.0022942479875257852
aF0.0003421392218578391
aF0.0003882082648231188
aF0.0187211205854333
aF0.0
aF0.01798685551112274
aF0.001094900531569096
aF7.628928099527208e-05
aF0.0008152764375787355
aF0.001012699008620694
aF2.5768122444859606e-06
aF5.166358069319435e-06
aF2.211389879612895e-06
aF0.0
aF3.927800366984126e-05
aF0.0004978714211723895
aF0.0008546578662553238
aF6.64185842789006e-07
aF0.0003607201266184699
aF5.754076935272131e-07
aF2.895784332225978e-06
aF0.0008816867619364982
aF0.0010871359617440285
aF0.00011905016033265002
aF0.0003837987004107591
aF0.04095923191322378
aF0.040147686239470244
aF6.846247198877525e-05
aF0.0008033709149644478
aF0.0013848835726623654
aF0.0021344009104813538
aF0.0003561811655357768
aF0.0011958708622276147
aF0.00017067940488056215
aF0.0305624436813697
aF0.0029207615116162897
aF0.0005277572451955937
aF0.0033098889073807443
aF0.0
aF0.00014491732082568928
aF0.0008307206244038776
aF2.910148832376278e-05
aF7.784356429062754e-05
aaa(lp16
S'N51386.graphml'
p17
a(lp18
F8.914518868402484e-05
aF3.634403296145645e-05
aF0.0019022412704044935
aF0.006933549910936964
aF3.541404988076326e-05
aF0.002947358762605228
aF7.220482916748144e-05
aF0.001014215874790432
aF0.0024821571142801236
aF3.890872470932893e-06
aF2.2379367341363488e-05
aF0.005175596849299252
aF0.006281864511220382
aF0.0
aF0.00036481114155634937
aF0.001891387247288001
aF0.0007098546720409755
aF0.0016501431136819156
aF0.00440764913529967
aF0.001805983320904024
aF0.0065149571204300245
aF0.005582392851216479
aF0.0007944391477228787
aF1.6527793035877455e-05
aF7.047048946117059e-05
aF6.239138922642547e-05
aF0.00045547761252460735
aF7.533030485724875e-05
aF0.002923949459785877
aF0.007280739395948013
aF0.0006623848482671291
aF0.0017170609717238176
aF8.094307290808522e-05
aF0.0019262160338765419
aF0.00030605882926845913
aF0.00026735918135149925
aF0.0
aF0.0008054616599978211
aF0.0
aF0.014243684143337395
aF0.0015731744645782451
aF0.003341643924752346
aF0.00032746548979691275
aF1.1169117030197483e-05
aF0.0010242920878128067
aF0.0003790007271662818
aF0.00018426796047591273
aF0.00032393718271154083
aF0.005277054515576054
aF0.01024463587388918
aF0.006760113471055489
aF2.0246545034901037e-05
aF0.00016044422434756316
aF0.00024103347827125578
aF0.0025939840543250325
aF3.6988255991869527e-06
aF2.271476127406523e-05
aF0.002159626472742561
aF0.007598344874724292
aF7.927523703235887e-06
aF0.00032858283129109873
aF0.0010661354328798881
aF0.014251688531065206
aF0.0210900946389415
aF0.0015064099298050977
aF0.001894645748140274
aF0.016404604004847615
aF0.008250027385475596
aF0.001612791176740421
aF0.0006243583871980214
aF9.689623424628296e-05
aF4.354367917679623e-05
aF0.0003216545296501254
aF0.003284248164617799
aF0.0031719249631937015
aF0.0044052277214347265
aF0.004165034696791606
aF0.00044292428984929786
aF0.0008870640915525006
aF0.005161731377828029
aF0.018933004580747315
aF0.0006356727514329409
aF0.013601857203241667
aF0.00020448491709593918
aF0.0
aF0.02708845528211546
aF0.02022984877306595
aF8.116739711587857e-06
aF0.0004837683177052495
aF0.0017697584690954547
aF0.00024938551571305437
aF0.0011216589815411203
aF0.001972409461919251
aF0.0
aF0.0
aF0.00018772915915438328
aF0.00030700093996535466
aF5.092064003487417e-05
aF0.00013186656865842012
aF0.0
aF0.0
aF0.001841074552030535
aF0.003623505162307017
aF0.00019636156371517728
aF6.666934654673882e-06
aF0.001142389595129357
aF0.00016059207773047606
aF0.0023445522356421882
aF0.00045964145170204377
aF0.001962941747143982
aF0.0007496246334475118
aF6.593345390666116e-06
aF0.000350098202184662
aF0.001998820654560386
aF0.0002230311326331084
aF0.000598287598371827
aF0.000550396465576005
aF0.0007806332886876882
aF5.234562619351313e-05
aF9.64711514712141e-05
aF0.0002520212559821904
aF0.0017197844480132665
aF2.893124251702554e-05
aF0.00019228414011655882
aF0.00016347054744620824
aF0.00019227541448367988
aF0.008042703376619576
aF4.998638979684028e-05
aF0.0004869318346734043
aF0.0002524758822395368
aF0.00037093180518081153
aF0.00018726576580380946
aF0.0012175032150080246
aF0.00651774345670291
aF0.00011925348688985515
aF0.00036634569460028936
aF3.246487615031928e-05
aF3.437347341222226e-05
aF1.1547826747125854e-05
aF1.7904492125968123e-06
aF8.209451858473268e-06
aF1.1321482060409706e-05
aF4.359520975835175e-07
aF7.841375520255393e-05
aF5.667377268585728e-06
aF0.00010104723916104093
aF4.193263021576325e-05
aF0.0002449522655635472
aF0.0003010816834714785
aF0.00043599374638398925
aF3.8184867933215653e-05
aF0.0
aF0.0
aF1.8795865803189225e-06
aF0.001875032536194552
aF0.0035894701657166535
aF0.0023493776149332204
aF0.00020337643080942547
aF0.0002152463390010709
aF0.0015393414325303178
aF0.0014559076950696277
aF0.0025820616163687547
aF0.004393516611608149
aF3.093534349869393e-05
aF0.0027389410099841124
aF0.002535832833918894
aF2.9873385588433114e-05
aF1.0809914649076368e-05
aF0.001953430243253393
aF3.9218450200460654e-05
aF0.017310804837930672
aF8.887319593001188e-05
aF0.0
aF8.83794667906377e-06
aF0.0001172495428347342
aF0.0006502510810364346
aF0.0003900625523228806
aF0.0005159983443242042
aF0.00034080682894564474
aF0.00015843889750190892
aF0.002120951662388409
aF0.003020547772494719
aF0.0008807706379520124
aF2.236387477514013e-05
aF1.4856767186396586e-05
aF2.461594172639843e-05
aF0.0036732676019213084
aF0.0017341021372238186
aF0.00261435820172887
aF0.0028480212324829557
aF0.013157499273334792
aF0.004883412413236028
aF0.0004822099052946018
aF0.0020339621267768744
aF8.42219324915516e-06
aF1.1578347488160091e-05
aF0.0
aF7.536305358589755e-05
aF0.0027218698743393488
aF0.0008242532366115257
aF6.305613728676144e-05
aF2.768555057534992e-05
aF4.4503705059230455e-06
aF3.737708803247365e-06
aF0.005824919476208258
aF0.0010382990900715426
aF0.0017211478799767604
aF0.0
aF8.880756365772006e-06
aF0.001355596632326255
aF1.87023449863329e-06
aF0.00023947238993850806
aF0.008677477124591904
aF0.00384340573461295
aF0.003749616184941498
aF0.01767487923388084
aF0.0006556446219780086
aF0.0007963573707240005
aF1.4671464822522222e-06
aF2.7648065096455926e-05
aF0.0029350413068103946
aF0.003238147960769878
aF8.71904195167035e-07
aF0.0
aF5.6695337547459966e-05
aF3.1841555746552275e-05
aF9.888426094206375e-06
aF4.169146326318592e-05
aF0.0015789745887793926
aF0.00231291690901863
aF0.00012594091565152943
aF0.027827086303941043
aF0.0018336707572146876
aF0.00018335581627295495
aF1.7275068403197155e-05
aF0.0007017988878703453
aF0.003069564021395642
aF0.012026032412902087
aF0.01619756569182116
aF0.0005958065990431214
aF1.2417118365654672e-06
aF1.889098291246069e-05
aF0.000528425557944895
aF0.00581501096348191
aF0.0030666776100272304
aF0.0016008545108028667
aF0.004292633282459965
aF0.003856215822442355
aF0.002139652978614397
aF1.0573638058327906e-05
aF0.00022423300181065607
aF6.825765129703577e-05
aF0.0055403495435801375
aF0.0017267196911322905
aF7.431700855175941e-05
aF0.00027536600791708824
aF0.00024209802106684702
aF0.0007787628769959768
aF0.0011126352068024394
aF0.0009489660890949472
aF0.0026495014027304482
aF1.1195457902470619e-05
aF1.1724017408078778e-05
aF0.0005035103028167492
aF0.0008965918910640324
aF0.0
aF2.3052919724139416e-05
aF0.004642055472014925
aF0.005302154630610897
aF5.127540378121495e-05
aF0.0009348891067360761
aF0.03674505823675353
aF0.03584732285353947
aF0.00010698891122040813
aF4.557083551666196e-05
aF0.008576136736079213
aF0.011103474114864455
aF0.002525794988056733
aF0.0019307487105638364
aF0.0
aF1.1107161897991825e-06
aF3.3308921518707564e-06
aF0.0017866059081500163
aF0.0001818871074761305
aF0.017525521723184466
aF0.0028777054140637043
aF0.0013007517935511685
aF0.000539237135578709
aF0.00015079251898297586
aF0.0019080556116000302
aF0.0013434214619662634
aF0.0029945273188229427
aF0.006488676708429583
aF0.0
aF0.008464214551075502
aF0.00013038736083599358
aF3.556130011480625e-05
aF0.0007271680771662719
aF0.000558047848079948
aF6.1959822640174e-06
aF2.7365905589431145e-05
aF9.438771412008126e-06
aF6.781477073521383e-07
aF1.2504349524450922e-06
aF0.0011686916021396176
aF0.0007519711321211178
aF0.003407797849654428
aF0.0005416412538688112
aF0.0
aF4.577497024626934e-07
aF0.00013037622202322524
aF4.829959538542856e-06
aF3.93175433883436e-05
aF5.907242551396695e-06
aF0.04849027036581588
aF0.025815969479313496
aF1.532816766585623e-05
aF0.0013469334317302664
aF0.0007385432525543757
aF0.008368341304401816
aF0.0006451038847458422
aF0.0006790834752354461
aF0.0004128917640313549
aF0.043481488296135684
aF0.0030636087935771218
aF0.0013225192524439287
aF0.0017433035861504518
aF0.0
aF0.001597752701892581
aF0.004413498287670659
aF0.0012856060173897935
aF9.083382060001774e-05
aaa(lp19
S'N51404.graphml'
p20
a(lp21
F5.5445123859501515e-05
aF2.5768385122246923e-05
aF0.007753318954784513
aF0.020041080274861435
aF0.0005629765414346935
aF0.007319171121134349
aF0.0008504330275789023
aF0.00023766074940946891
aF0.00017749379989659428
aF2.323053254859911e-05
aF2.4100085361133597e-05
aF0.009546094489007836
aF0.01110781436643871
aF0.0
aF0.0019673912321115376
aF4.091047748029994e-05
aF3.89636151042848e-06
aF0.0006470275826084086
aF0.0015835654811649723
aF0.0014662088306352603
aF0.003617841522495392
aF0.005608390177557006
aF0.0018602371706405614
aF0.00019359313095699835
aF3.476567365746087e-05
aF0.0
aF0.0004995867495705671
aF0.0010363311637042482
aF0.004225004370614997
aF0.007218351928871379
aF0.0015923958995945802
aF0.002839825838264925
aF0.000285011744808136
aF0.0012683276277085248
aF7.360495633432064e-05
aF0.00014265887546206172
aF5.321986429403329e-05
aF5.186038646341364e-05
aF5.467106174000295e-05
aF0.008809853150289508
aF0.0008797883546466343
aF0.0027253818768630776
aF4.992756604793651e-05
aF0.00012001143015842255
aF0.00013205503281047678
aF0.0006475505331643486
aF1.551226296037234e-05
aF0.0001655306842870367
aF0.0058189606934130845
aF0.019987328883725432
aF0.004109385984659038
aF0.00022325395965027802
aF0.00029564860411553367
aF0.00030417168454706324
aF0.0028809697570269335
aF1.0508179862173071e-05
aF2.0626823716747594e-05
aF0.001040072816521062
aF0.0010885482922385536
aF8.160518856952035e-06
aF0.0003389404463021738
aF2.881860228205449e-05
aF0.00913006932901369
aF0.006807862800949154
aF4.454053761207591e-05
aF0.0020698757099919334
aF0.013879545498802761
aF0.00813388499797195
aF0.0003786350720967685
aF0.0003338651096993763
aF2.3313407279839918e-05
aF8.454033789218365e-06
aF0.00022213699207399747
aF0.0016419670990895853
aF0.001754407690995048
aF0.0011612133768961754
aF0.00594202484093251
aF0.0014464160364962377
aF0.00029440164063359355
aF0.004258665865587214
aF0.01371784983995103
aF0.000539159545964047
aF0.019917170606329287
aF0.0004688819652493517
aF2.0683089046832433e-06
aF0.02075559343449139
aF0.019770249525823378
aF7.279433772057677e-05
aF0.0005610276795024399
aF0.0002572136666152664
aF1.4606505336715117e-05
aF0.0008892388403195094
aF0.0004113807534013469
aF4.076173444961065e-06
aF0.0
aF0.00034100121873261824
aF0.0001077518333045351
aF0.00011864675947314067
aF0.00011230617169100995
aF0.0
aF0.0
aF0.004185060156207777
aF0.009247790638265389
aF0.0001451084543316957
aF9.343888457408367e-06
aF3.626470390187248e-05
aF4.8689444312792236e-06
aF0.002447701796505729
aF0.0007349072593764522
aF0.0033059499639334377
aF0.0012078955472638758
aF2.5818628581693316e-06
aF0.0029301116891322677
aF0.001307675355251307
aF0.0010193731339014143
aF0.0017415066543213754
aF0.00011642787046630682
aF0.000613277385373575
aF9.946128016956245e-06
aF0.00016831591003896952
aF2.9149874134168924e-05
aF0.0027732829512366604
aF8.838734822947801e-05
aF0.00033323474824011853
aF0.0009743334838887875
aF5.2253960186744346e-05
aF0.02077892252758915
aF2.1171270574043183e-05
aF0.0006826980917422966
aF0.0025904044118124914
aF0.003816721637832244
aF0.002611389669135539
aF0.00221354247575391
aF0.001322575029745839
aF0.00024884549655546497
aF0.00010272427448632417
aF6.227711503028815e-05
aF0.0006156918450240875
aF2.5215713213516014e-06
aF3.206814568131929e-06
aF2.23978737352717e-05
aF1.4381563169854414e-05
aF2.781908379840745e-05
aF1.7809633986508472e-06
aF7.654118027307167e-05
aF0.00042193755168712946
aF0.001104128577952327
aF0.000445015170364191
aF0.0013835290411784186
aF4.914717991630168e-05
aF6.385619042065755e-05
aF0.0
aF0.0
aF4.577497024626934e-07
aF0.004297309484489994
aF0.000997339318834355
aF0.0051678215680452675
aF0.0005594765690946585
aF0.0003136640092135517
aF5.0661787516965486e-05
aF0.0003096903494018206
aF0.002916579591501717
aF0.008393945888738118
aF0.0
aF0.001480269651105194
aF0.0007484437692669852
aF3.1735084675306125e-06
aF1.667313715051685e-05
aF0.0004912293795544582
aF0.0
aF0.020380889958363933
aF0.00040601086855237363
aF3.269438496190684e-05
aF6.313788999485427e-07
aF3.4374669353559607e-06
aF0.00035325980729225374
aF0.0009559044439051476
aF0.0032169265295508005
aF1.2451695912837952e-05
aF4.847017330350095e-06
aF0.006114259139311047
aF0.0011912797119485506
aF0.00012553159371836087
aF0.000597408611029663
aF0.0005312293149732224
aF0.00021319000838401124
aF0.004632710699235546
aF0.0016555789703058448
aF0.0021140915422147616
aF0.00045991628394241737
aF0.0022860482057637335
aF0.006142983890014678
aF0.00040599505350847465
aF0.0008673902694173825
aF5.58052412756793e-05
aF6.629429706243511e-06
aF0.00020342425325434676
aF0.0
aF0.004536768787049377
aF0.0022444356396997193
aF2.032738735480496e-05
aF1.0423979815167439e-05
aF4.0707153492091895e-05
aF5.4616666822485955e-06
aF0.0021036683472387087
aF0.002583963123701812
aF0.002591908312878652
aF0.0
aF8.71904195167035e-07
aF0.002287795043545936
aF8.671157685856413e-06
aF0.00015044017969172515
aF0.008616015267890615
aF0.00043738434669929446
aF0.008848455885891855
aF0.010291295608386309
aF0.0023379265964059825
aF0.0007882936417231387
aF7.43920962955291e-05
aF6.659234488152582e-05
aF0.0018425405909459941
aF0.002135133081173774
aF0.0006046076608672271
aF0.0
aF1.3424035153105762e-05
aF2.5733078148049893e-05
aF3.3494357432257384e-05
aF4.095727931623316e-05
aF0.0009014303091878538
aF0.0019921536739552835
aF7.826852098732905e-05
aF0.026195629429302793
aF0.004028440931763213
aF0.00038769766412294414
aF0.0005406674289500124
aF0.004113875829844937
aF0.0015217795157395062
aF0.011524054657383292
aF0.013551916045750945
aF3.864756031082031e-06
aF0.0
aF0.00029109118296833427
aF1.7854745767188325e-05
aF0.0026108816307309824
aF0.003196163438248431
aF0.004348729214195539
aF0.0027390211717978658
aF0.0025524483282977723
aF0.00021128228075716998
aF3.471597105503348e-06
aF0.0009591652321103165
aF0.0
aF0.0020870214822401962
aF0.0009647551537313038
aF0.0001739622319025794
aF0.0002767610009922825
aF0.00011298806671387765
aF0.0006746081367957883
aF0.0007832358854157095
aF0.002867405660927872
aF0.002868244907956152
aF9.63683584131986e-07
aF1.4688874237900757e-05
aF0.0005195605087463229
aF0.00027137721845459404
aF3.0516646830846227e-06
aF0.0
aF0.00340505769937698
aF0.002140538933747082
aF0.0009845706482505979
aF0.001490309433391938
aF0.03479052239642156
aF0.05112915150827816
aF3.153171388079667e-05
aF5.906447773712173e-07
aF0.0069869187589676396
aF0.012328122492841168
aF0.0016541102621578803
aF0.001746189043594388
aF2.0548374688443457e-05
aF4.705943367470534e-05
aF0.0
aF0.00338211888546446
aF0.0004800920378969111
aF0.022775463346414376
aF0.0012836761561767238
aF0.0006170574942999956
aF0.000670112816962782
aF0.00032852645311264484
aF0.0009138648740626655
aF0.0014529307285131641
aF0.0005873865016597415
aF0.030913502064405896
aF3.043050570244096e-06
aF0.006898210525526849
aF9.84557777933453e-06
aF0.00010824153661922689
aF0.002496520833254111
aF0.00027619578386554725
aF5.115970577358675e-05
aF0.0
aF2.7649931522494007e-06
aF0.001027911351572443
aF1.2018723875375702e-05
aF0.0006190566183737099
aF0.0012618641679081265
aF0.0003227646716842929
aF0.00027693134798971057
aF2.034443122056415e-06
aF2.301253663876863e-05
aF2.6343827665839878e-05
aF1.1430342522201812e-06
aF0.00011517392505693573
aF0.000202682736950731
aF0.05499002344644648
aF0.03056944521036758
aF1.7479160425621605e-05
aF0.0039043497605987256
aF9.478710857800954e-05
aF0.001511894466266086
aF0.005524225996036454
aF0.001777153960537933
aF0.0006329908914424951
aF0.030336224513829054
aF0.0012137426194527446
aF0.00121419066049097
aF0.001443009260443523
aF1.950854953840663e-06
aF0.0022668247946333844
aF0.006478400799947522
aF0.0012297341345080153
aF0.00038681887267992304
aaa(lp22
S'N51406.graphml'
p23
a(lp24
F0.0010650333889641813
aF0.0001598517793986291
aF0.010022011203649246
aF0.010219319075078032
aF0.005285347410042935
aF0.0014231719801876253
aF0.0023387465191433495
aF0.0008303085771810447
aF0.00029920654068247963
aF3.353474818988603e-05
aF3.4678007762325253e-06
aF0.0015503471121697857
aF0.00020041154203494777
aF0.0
aF0.0025132173346681746
aF0.0006062243565115055
aF3.10775602838855e-05
aF0.000523673517255036
aF0.008190376280201526
aF0.008491246457749398
aF0.010314171944477545
aF0.005707276018578023
aF0.00041270401583507084
aF8.074962910665113e-05
aF0.0007300254627776257
aF0.001453281669381063
aF5.397763100136342e-06
aF9.381078144985186e-05
aF0.00012115610139492829
aF0.0004162780576259799
aF0.001565870227891781
aF0.004660353818094548
aF3.5493938056599216e-05
aF0.00232458715983999
aF7.305592312497533e-05
aF5.526300690492889e-05
aF7.112374021163948e-06
aF0.002046031326753732
aF0.00017936467215584192
aF0.0028590035971548036
aF0.0021893554618761277
aF0.0019002244022901093
aF0.0007632501698645464
aF0.0
aF0.002097810630907354
aF8.597762657702508e-05
aF0.00010539226681213972
aF0.0005894302378993841
aF0.011934987570004508
aF0.015511045121326334
aF0.0007836042298894058
aF0.0
aF0.0003936129577933208
aF0.0001864305786193467
aF0.004094711252318345
aF0.00018156242121268162
aF4.264200547272964e-06
aF0.002313765003163213
aF0.004811331938187397
aF8.136122808943866e-05
aF0.002103960194351561
aF0.0030848745148440836
aF0.01695674249395832
aF0.021447427884691252
aF0.0003343592024680366
aF5.989081539417887e-05
aF0.005823008524480497
aF0.005080102021937366
aF0.0011560830008185998
aF0.00012228466508415941
aF2.0890493886559862e-05
aF1.3994042231258919e-05
aF0.007579886722535024
aF0.0005888085500558064
aF0.0016240016064164987
aF0.007375077443314304
aF0.0007476694665532219
aF0.00014617647543627512
aF0.0012441631167453653
aF0.000464270837059674
aF0.011682854784116278
aF0.0003378358533380335
aF0.01710166351012185
aF7.289536393737505e-05
aF0.00014072763588594017
aF0.0176686368919517
aF0.012347137366358542
aF0.0
aF0.0
aF2.6949737684373415e-06
aF0.0011621992692781222
aF9.358055866689844e-05
aF0.0006788602500116686
aF0.0
aF0.0
aF6.876377342445781e-05
aF0.0005109429062609914
aF0.0
aF0.0
aF0.0
aF0.0
aF0.0012790686921171546
aF0.0018032415422676376
aF0.0002749868591448175
aF0.00022560233513105722
aF0.00015953037752793173
aF2.1403705576604794e-05
aF0.005979659599389223
aF0.0015620521927829673
aF0.0018958418653218319
aF0.0002984463194183987
aF1.970575671308e-06
aF0.0012713940255943091
aF0.006243715665523983
aF0.00014189852943771847
aF0.0012464149568211663
aF0.00456495524425726
aF0.0006658565958190907
aF0.0010182171376354563
aF0.0002666968136960659
aF0.0009753834714786873
aF0.0004372736273089923
aF2.82739154843888e-06
aF2.9280950174069705e-05
aF0.00293257530296461
aF5.721871280783667e-07
aF0.02029867766250644
aF0.0
aF0.0011750403590736521
aF0.0002258806071482243
aF0.0003685440083059763
aF7.323995239403094e-07
aF0.003017620757330679
aF0.0004066092386969428
aF0.0
aF0.0
aF5.97687731301733e-05
aF0.0
aF2.0117522061274694e-05
aF1.7900226029471007e-05
aF3.9252396149407016e-05
aF0.0
aF0.0
aF0.0
aF5.994868016029963e-05
aF0.00018209654715789538
aF2.227126978354843e-06
aF0.0012771918616683606
aF0.0002602804461768729
aF0.0003608016071049914
aF0.000522960172226197
aF0.0
aF0.0
aF0.0005484271263392045
aF0.002065556541099034
aF0.0016101608336434067
aF0.0016355561396987938
aF0.00013023385610961739
aF0.0022134920583572327
aF0.0011709253230214997
aF0.003170313555284571
aF0.004121084621525288
aF0.010852531287149534
aF1.8898909654084872e-06
aF0.003217765616591592
aF0.01112586901895919
aF0.0
aF4.257096885640271e-05
aF0.0001609926387808461
aF2.1810439143267834e-05
aF0.021093865659811334
aF0.00026168490971316855
aF3.962055962422162e-06
aF1.183286058960338e-05
aF0.0
aF0.00019703748284578525
aF0.00040719501986587973
aF0.0008235110874615774
aF0.00011236048754600524
aF2.354897212694829e-05
aF0.0032315992478909768
aF0.004824085593314027
aF0.0006450192459424164
aF7.629161707711557e-07
aF4.557942613259518e-05
aF7.639674591135112e-05
aF0.00017825907499999631
aF0.0010698458829908734
aF0.004879649592838617
aF0.0005900135027570798
aF0.003426271057571526
aF0.013732385374660675
aF0.007123565271353322
aF0.0015809594805238159
aF3.215093285014322e-05
aF5.395755822529865e-05
aF0.0001509762984755125
aF0.0006224992817865998
aF0.0013361520866780226
aF0.0015845588755511143
aF0.0
aF7.493752344068191e-06
aF2.196979694968536e-05
aF3.632110689779449e-06
aF5.9270248405645784e-05
aF0.00029052380443279576
aF0.0010561670346819097
aF0.0
aF6.658795412932152e-05
aF0.003107721058179164
aF2.666406139359613e-06
aF9.390489150819492e-05
aF0.009946867313202648
aF0.0007842467165108826
aF0.01437495707051193
aF0.0052923258424596884
aF0.00020948619663474342
aF0.0042664585135356835
aF6.118625930996737e-07
aF0.0
aF0.00461555339726326
aF0.002262154353389338
aF0.0
aF0.0
aF1.4822371317839594e-06
aF0.0
aF0.00011849572426283257
aF0.00011561951052374516
aF0.0005940928557327669
aF0.0033756322810853164
aF0.00027017463193770624
aF0.025599389727401643
aF0.0016885669709401337
aF0.0004465054163149919
aF0.0003879255648994154
aF0.004291062400640024
aF0.010734345453244998
aF0.003554801185377355
aF0.011076023952777582
aF1.0941954681889233e-05
aF4.896234271225555e-05
aF0.00027327128076273723
aF0.0006631573819894965
aF6.822334543695832e-05
aF0.0008240825603997185
aF0.001850774895224155
aF0.0004827097524966814
aF0.0009117266615556256
aF0.0006610247067134179
aF0.00020891622338892394
aF0.004913588210029313
aF0.00040145676938838207
aF0.0015449161824809344
aF0.0013597214898541442
aF0.0026573650038787503
aF0.0005355854296942581
aF2.2017014677285523e-05
aF9.880920558947367e-06
aF0.00011875474010540114
aF0.006408381835950697
aF0.002508859919499784
aF9.202568719955353e-05
aF5.9586259784306685e-05
aF7.063676249860595e-06
aF0.00044979189082097103
aF0.0
aF0.0
aF0.003445965106447062
aF0.010973873027952144
aF0.00037101585479054177
aF0.00011048093396443346
aF0.04724147137242562
aF0.03837430957956307
aF0.0
aF0.0
aF0.0036554439518077663
aF0.00635455394247525
aF0.011302400841997852
aF0.00903597355351545
aF0.0
aF3.514503363509996e-05
aF9.73202012607374e-05
aF0.006861531774681688
aF2.7934290376546397e-05
aF0.02226961629917623
aF0.0
aF0.0004087580380216847
aF0.0007278302085168922
aF6.876574521965813e-05
aF0.000481839395532236
aF0.0009482945216522707
aF0.00031471909252678114
aF0.002440754362821991
aF0.0
aF0.018604802277171907
aF0.0016116165815683993
aF0.0001373055743150574
aF0.000513430341935142
aF0.0003162686145981541
aF3.9247570296000886e-05
aF1.4234638923314346e-05
aF0.0
aF1.595062484080529e-06
aF9.738712135125076e-06
aF2.927561042231229e-05
aF8.568338864080296e-06
aF0.0011470458411136685
aF0.0021912704137177674
aF5.743913657821652e-06
aF1.454384407352123e-05
aF0.00030390530505746484
aF0.0009908955911384798
aF0.0019099649318838545
aF0.00024156644863754709
aF0.04302797059912906
aF0.034469157977066706
aF1.588330913998272e-05
aF0.0001773088555640306
aF0.0028889441407491507
aF0.001418060444840452
aF0.00011991012888769981
aF5.30903091924994e-05
aF0.0011784252820078393
aF0.04640448873327648
aF0.0001631320325252065
aF0.0004972236699333
aF5.027162847134436e-07
aF0.0
aF0.0003139665103750519
aF0.0020231606201253746
aF8.215343186938613e-06
aF4.760532699413247e-05
aaa(lp25
S'N51620.graphml'
p26
a(lp27
F0.00028200271711675254
aF0.0
aF0.0015415261811082645
aF0.00684924713719027
aF6.772338009312232e-05
aF0.007346524535534583
aF0.00020973058032865968
aF0.00012101573353721389
aF4.155775610261523e-05
aF0.0
aF6.789215153001784e-06
aF0.00011421061466476146
aF0.010328198432391035
aF0.0
aF0.0016764724944778224
aF0.0006774332021099547
aF1.075685062036627e-05
aF0.00024281610317619383
aF0.0034230080882994523
aF0.0009997213006733648
aF0.007518079678928333
aF0.0035413207625790634
aF0.0006373308170441942
aF6.126905298116363e-05
aF0.001594632630076385
aF0.0001410760843324315
aF6.91276917449948e-05
aF0.0015988313258006896
aF5.3987208647546916e-05
aF9.15903766385542e-05
aF0.000672535440681388
aF0.0018262430737036723
aF0.00014468590591358173
aF0.0006145937849787519
aF0.00014937782767793565
aF0.0060061303342763325
aF1.751894743071208e-05
aF0.009922145832321445
aF2.106495183556334e-05
aF0.00045097412377823374
aF0.0024241793410850476
aF0.0006882496919231719
aF0.0
aF0.000701895854226292
aF0.0005174210465657397
aF7.318863191284995e-05
aF0.0
aF0.00024122049505884266
aF0.006696010144075295
aF0.01440130354934476
aF0.0020418569107860576
aF0.0
aF6.511129969737165e-05
aF8.71904195167035e-06
aF0.0016432756351761459
aF0.0005823352897220586
aF7.774310133985222e-06
aF0.0011137355974640746
aF0.008352284141953192
aF5.961174060087037e-05
aF0.00017932195610220584
aF0.0021518857249931147
aF0.0015497559914961958
aF0.01292560955615641
aF4.736984699094306e-06
aF1.5528684827375903e-05
aF0.01443635382289423
aF0.01525674174310126
aF9.787098173611942e-05
aF0.0036214124307136237
aF5.673960237693989e-05
aF5.721871280783667e-07
aF0.00022635548114509474
aF0.0
aF0.01574448791607715
aF0.0038170373612876566
aF0.0006424129160833487
aF7.131899198305287e-05
aF3.7548293443551285e-05
aF0.00243877480452557
aF0.02621702192847572
aF0.0006692474239319338
aF0.01341659981297109
aF0.00015528360659238717
aF1.1831871100080676e-06
aF0.01932655355300421
aF0.022729887141894417
aF0.0
aF0.0
aF0.0005454760816991089
aF0.0
aF0.00014479512739996178
aF0.00035629155911346034
aF0.0
aF0.0
aF0.0007651645096638535
aF2.304365233227635e-05
aF9.628379313651523e-05
aF7.96684576160824e-05
aF0.0
aF0.0
aF4.556647864829402e-05
aF0.001341298559938648
aF6.691709372273623e-06
aF0.0
aF5.453048146873904e-05
aF0.0
aF0.0037320249367474123
aF0.0002689475521855678
aF0.00019894382271787178
aF0.00018337210330571466
aF0.0
aF0.0006837880135913734
aF0.0017269114504791258
aF9.765353839895713e-05
aF0.0041928479936576375
aF0.007910754327857865
aF0.001674934376909596
aF0.008463507567550736
aF0.00023338862504168408
aF1.4489526093441397e-05
aF0.0009830834056329244
aF0.0
aF0.0
aF0.00011434551555868413
aF0.00013348767050565185
aF0.012245309299716395
aF0.0
aF0.0014263195459469707
aF0.0
aF8.32204842470829e-05
aF2.0936890325478517e-05
aF0.0006336780365231826
aF0.001396881146237327
aF0.0
aF0.0
aF1.4084606229621335e-06
aF0.0
aF1.1905541914942969e-05
aF9.687659597654194e-06
aF0.0
aF0.0
aF0.0
aF9.830537006261665e-05
aF0.0
aF3.6771871658829273e-06
aF0.0
aF3.657630571449723e-05
aF0.000566597046399435
aF0.0001648278186848301
aF7.795812245139353e-06
aF8.431842106073503e-06
aF0.0
aF0.00014761150632784686
aF0.000718058484654526
aF0.00023363451515128454
aF0.004123334232606743
aF0.003029409350606447
aF6.24354423727482e-06
aF0.00011012517858315512
aF0.0017638765965384742
aF0.03860437013973462
aF0.005341113527237598
aF0.0
aF0.009375262611253005
aF0.008762152109795699
aF0.0003379600252576078
aF0.0
aF3.727339752949586e-06
aF1.5617776595573117e-05
aF0.037096814104139966
aF1.0067379052042696e-05
aF0.0
aF0.00018701157137106285
aF0.0
aF0.00020034017909664295
aF1.5398198457315865e-06
aF0.00017507504209280647
aF0.0
aF2.765637789572875e-05
aF0.005318225517453757
aF0.007247305596480494
aF0.0
aF6.343103837845159e-06
aF6.024600030467401e-05
aF0.00014330027533023977
aF0.004011423469953097
aF0.0007768273393042064
aF0.0005502819362654458
aF0.0006244590800568105
aF0.00738731099377959
aF0.0028087377195106017
aF0.00206983987072287
aF0.0016570331760546752
aF6.48545588615341e-05
aF2.870648055077404e-05
aF7.967149132265693e-05
aF0.00010039758849091695
aF0.0
aF0.0012035380024675753
aF9.187161165786643e-05
aF0.0
aF5.343900861545052e-05
aF0.0
aF5.210453625344403e-05
aF0.00012000632927111851
aF0.00139037329157545
aF0.0
aF0.0
aF0.0007995924022428555
aF0.0
aF0.00014237613474550042
aF0.016223113875538965
aF0.0005731886306224341
aF0.014628352885449909
aF0.004450135816424493
aF0.0007162993892102605
aF0.0004444064992917784
aF7.201668698040594e-06
aF0.0
aF0.0007487043608171387
aF0.0017550845924215153
aF0.0
aF1.6645443725916124e-06
aF6.446255809156711e-05
aF0.000490404259846246
aF4.389793513108163e-05
aF0.00012037406142830668
aF7.714108531546945e-05
aF0.0007752158849461848
aF0.000140824794844626
aF0.03306377060471095
aF0.001298678159490218
aF0.0002141385027192187
aF0.0005377546251591724
aF0.0038921037459041397
aF0.03806847035041005
aF0.023665351360360406
aF0.011813694682004262
aF0.0
aF0.0005754984578544297
aF0.0039002103884318196
aF0.0038409471799846864
aF0.0038795025977136468
aF0.001957676525727364
aF0.0021975078924735577
aF0.0016616174597560778
aF0.0006897890499574018
aF0.00043710536934125774
aF3.768076800659287e-05
aF0.0021508599253331185
aF0.0006996932644340638
aF9.954552359858636e-05
aF0.007660204098354884
aF1.7100802408992545e-05
aF0.0010813999766230414
aF1.296698424201497e-05
aF6.683544642218826e-06
aF0.0007240476216429475
aF0.00019532241551151422
aF0.0008667894287811742
aF0.000651892965726119
aF0.000265070752282514
aF0.0
aF0.0009567605675242915
aF2.615712585501105e-06
aF0.0
aF0.03324921044174186
aF0.016668234157952856
aF2.600174144714092e-06
aF1.7296884843394623e-06
aF0.09012619424903565
aF0.05627175475579437
aF0.0
aF4.341249454624925e-06
aF0.006119105232227586
aF0.004512898599305299
aF0.010775911325016126
aF0.009435577160439019
aF3.2797677579372243e-06
aF0.0
aF0.0
aF0.00067037947691951
aF0.000447560403769317
aF0.019413948571899098
aF0.00020701270889751376
aF0.0008944861892954647
aF0.006847489155502693
aF0.0005392887449111641
aF0.000818573754037533
aF0.0002803320934223153
aF9.86673553548403e-05
aF0.00041202871452986794
aF0.0
aF0.00884625015027845
aF3.852539180345089e-05
aF0.0001053545039815648
aF4.410781042258807e-05
aF0.00010653341139778009
aF0.00039247660766376566
aF3.303764243258053e-06
aF5.26445622983611e-05
aF6.257182990175572e-05
aF4.338944912194632e-05
aF1.6513781799791273e-05
aF0.00024121796543916053
aF0.000575515128136846
aF0.0010445002604193474
aF0.00014141103127422852
aF1.5632003917618144e-05
aF6.207490278649759e-06
aF1.8653162532074468e-05
aF0.0008136166426020087
aF0.0009008782875867997
aF0.07678145558888642
aF0.07800165920967655
aF1.2118569090978084e-05
aF3.5356766154589456e-05
aF0.001789195109349972
aF0.00332072426279536
aF0.0
aF0.00014427025159693125
aF0.00021355672869980023
aF0.015502277080417811
aF0.0008344019886248659
aF0.0002495716212780624
aF9.24746873662007e-07
aF0.0
aF0.0007186488890131916
aF0.0006308595011758271
aF0.0054653818783560616
aF4.2856546207727476e-05
aaa(lp28
S'N51622.graphml'
p29
a(lp30
F8.125291765556372e-05
aF0.00016096589358109855
aF0.007100909367854913
aF0.0017701688801383163
aF7.678515735865955e-06
aF0.007027960617918295
aF0.0024713226484092423
aF0.0018329048679622743
aF0.0
aF3.698689941367514e-05
aF0.0004885688668058773
aF0.010008876099706101
aF0.0039175345199704385
aF0.0
aF0.0038787476524803424
aF0.0007363615945385263
aF0.0007429530731472428
aF0.0003635130549693285
aF0.010139338735853234
aF0.0071559938774388016
aF0.016554130582008098
aF0.02477832097821573
aF0.00010978588819107949
aF0.00012666179362632901
aF0.00012803759961168922
aF0.0007407758161790402
aF0.0
aF0.00012501184598942035
aF6.332075714356987e-05
aF0.0016705213794132583
aF0.0007603263067625897
aF0.0046839180075728265
aF9.36627302970737e-05
aF0.002575429180342514
aF0.00017471845333678015
aF0.00010180820891479768
aF5.4826675342614486e-05
aF0.00026121244068013266
aF1.4314439508196122e-05
aF0.003227413621497977
aF0.0008039936087269694
aF0.0006179418537275351
aF0.0
aF0.0
aF0.0005415639095173672
aF0.00048169170460059046
aF1.986261992200019e-06
aF0.0050828775278578655
aF0.0036397194705574637
aF0.012381292276830448
aF0.0030796907814840875
aF0.0
aF0.00015053045536703627
aF9.035383610075915e-05
aF0.003334686573229106
aF2.3203608285866743e-05
aF1.3604387502842362e-06
aF0.002349060372442667
aF0.0013852629157987634
aF5.6459607122953876e-05
aF0.00022148021113942246
aF0.0022964261343694425
aF0.014287737153077582
aF0.022557255784193795
aF8.983236743791304e-05
aF0.00011954735985729296
aF0.011243787213422405
aF0.01902151810438556
aF0.004612392501992882
aF0.0017967243294142708
aF3.686814933684068e-05
aF3.734509498934738e-05
aF0.005640595987400035
aF0.0009261671716466718
aF0.003836624434162984
aF0.0016666784443495977
aF0.0004980744906774401
aF0.001864058420819594
aF5.580631097587608e-05
aF0.0012084438740644007
aF0.007109512648623927
aF0.0003763841483880249
aF0.013719988364836639
aF0.0007336756968106583
aF0.0009480426330534387
aF0.01655940555157609
aF0.024711389472664404
aF0.0
aF0.0
aF0.0006617101428386192
aF0.0
aF0.00021550370878865518
aF0.00015678147164151443
aF0.0
aF0.0
aF3.8129663114304956e-05
aF0.00021009175490328407
aF0.0
aF0.00010869019451484053
aF0.0
aF0.0
aF0.0004938745209844399
aF0.00038752732565087007
aF0.00029771326788712537
aF7.420358510429393e-05
aF0.0008466666128682201
aF3.4117203017850536e-05
aF0.0009674557941750539
aF0.0003790095134738237
aF0.00045618358350241623
aF0.00036973389462299745
aF9.845312717177635e-06
aF0.0011528741350171011
aF0.0007836284001117187
aF0.00024977839259101805
aF0.0006664574348625799
aF0.00031861667873742935
aF0.0012591327583929726
aF1.0985938297067343e-05
aF0.0013389332576060516
aF0.0004740629213228707
aF0.00023725864972179124
aF1.3928591214284326e-05
aF1.3078562927505526e-06
aF0.00013716810781057477
aF0.00034101101488064983
aF0.02711358908193582
aF0.0
aF0.0008513324900568355
aF6.60672445101454e-06
aF0.0013611361573886004
aF0.0008247638008390173
aF0.0013120066835965814
aF0.0008224773061654693
aF0.0
aF0.0
aF1.4407659863036195e-05
aF4.331810091957218e-05
aF0.0
aF9.076941741629246e-05
aF2.90634731722345e-07
aF9.92774841077184e-06
aF0.0
aF2.912160011857897e-06
aF1.8309988098507736e-06
aF9.546213109881496e-06
aF3.1224341529195e-05
aF0.00026552782120278415
aF0.0014715953773442527
aF0.000579001231142696
aF0.0004419938885383062
aF0.0
aF0.0
aF0.00014175922012196556
aF0.002893416067545602
aF0.0015930414555573584
aF0.0017067568419511922
aF0.008281515884765818
aF6.713498980541439e-05
aF0.0
aF0.000419643160073673
aF0.007332401022572247
aF0.00475109283664487
aF0.0
aF0.022468605859387616
aF0.016044299219372744
aF0.0
aF0.00010733766758653886
aF0.0018174473059598547
aF0.0002001573755541335
aF0.02110501961039745
aF0.00029269834453576947
aF3.6782533376061425e-05
aF6.850089665088776e-07
aF2.154116246883263e-06
aF0.0005053580316502645
aF0.00024319288086549853
aF0.0008321136790878859
aF0.0
aF2.3157548570297147e-05
aF0.001948654635271499
aF0.005248060140508306
aF1.9138616632111768e-05
aF9.148772451573394e-06
aF0.0011034665392491282
aF9.74411412878883e-05
aF0.000652784139289713
aF0.000832536531497515
aF0.001900412465801414
aF0.0008697895106454331
aF0.003398221084997844
aF0.0017802162550662594
aF0.005384069668703053
aF0.0041181998835635196
aF1.4726890975615737e-05
aF0.00026021727907495654
aF0.00010826555096317512
aF7.307461759864552e-05
aF0.000145035856403409
aF0.008413275463478621
aF0.00014822009304931962
aF1.5325114009633822e-05
aF0.0
aF0.0
aF0.00019344151618095286
aF0.00036764339680877737
aF0.0007194998045014862
aF0.0
aF7.075024445665795e-06
aF0.002864733490539423
aF8.71904195167035e-07
aF0.0016463928265642556
aF0.018359749274348323
aF0.0017538008228920527
aF0.011623134693274402
aF0.011997939023078864
aF6.287907226358598e-05
aF0.00023760254483902384
aF0.0
aF1.1051974798198363e-06
aF0.0005729154775767972
aF0.00168061667264338
aF0.0
aF0.0
aF2.7066779914265468e-05
aF3.352639673537052e-05
aF0.0
aF2.5099192181634188e-05
aF0.00023597031468971678
aF0.0009565644164325287
aF0.00011073250401323131
aF0.03349251398236391
aF0.0016113121522509438
aF4.1289122840803526e-05
aF0.0012482330316457312
aF0.003231542896209275
aF0.02050709940189572
aF0.014668749104446576
aF0.010017376688905618
aF5.784291694755853e-06
aF3.7562033603287894e-06
aF2.7680762219946454e-05
aF0.00404228234240327
aF0.0003637980722237676
aF0.0007140070796443534
aF0.0012713815450571878
aF0.0013416530006773566
aF0.0016732245209540664
aF0.001602184917634204
aF0.0
aF0.0027820312671145153
aF0.0004127226177121475
aF0.00018195261566681767
aF0.006398604909063809
aF0.00034100851158666876
aF0.0008488362633612427
aF0.00048772025387263046
aF0.0005801807256963137
aF6.941742676331485e-05
aF0.0012795706334964565
aF0.0024107343031875314
aF7.263379052854324e-05
aF5.444915225085402e-05
aF0.0
aF0.004603618641267063
aF0.0
aF0.0
aF0.004860679501247721
aF0.004281124278614431
aF0.00017234335011583507
aF0.0
aF0.046779443443564606
aF0.03778163220595517
aF9.329106853632615e-06
aF9.33338014518542e-06
aF0.002589269551961161
aF0.00351248002200774
aF0.00846494957645524
aF0.014973833048801403
aF1.8708230306813847e-05
aF1.8270097056898787e-06
aF1.6486004609767503e-06
aF0.0025071446984482834
aF0.0001613437949956697
aF0.03585060528644993
aF9.342830027185866e-06
aF0.0005074100403745811
aF0.0036240822060168076
aF2.207430529539255e-05
aF0.0010597452561328343
aF0.0012361342118365538
aF0.001758609423335027
aF0.0001500203362096506
aF0.0
aF0.015952841952031074
aF6.785334851466286e-05
aF6.473099397785346e-05
aF0.00012777672251450668
aF4.128060391865024e-05
aF8.889501619222614e-05
aF0.00011578696421892946
aF0.0
aF2.629082756591833e-05
aF7.163822438762015e-06
aF0.00038533822945598437
aF0.000984382738782725
aF0.00038725848832964275
aF0.0007637790054450028
aF5.911616918425294e-05
aF4.385636512947883e-05
aF0.00017410321441513712
aF0.0002274268741614162
aF0.00026324955339165353
aF0.00020936854641933177
aF0.05966215275625642
aF0.053257932780869266
aF1.1025443083950097e-05
aF0.0011394528216361007
aF0.001993187064606544
aF7.524284563822879e-05
aF1.18607210354706e-06
aF0.0005605020055459803
aF0.0002229877562006906
aF0.02288681751744082
aF0.0022267068036860554
aF0.0029641112987243102
aF0.0
aF0.0
aF0.00012302482638391134
aF8.469564927532113e-05
aF2.439736623667968e-05
aF0.00040431019807685934
aaatp31
Rp32
s.