(dp0
S'clustering_coefficients'
p1
ccollections
OrderedDict
p2
((lp3
(lp4
S'N51211.graphml'
p5
a(lp6
F0.6564705882352941
aF0.7541528239202658
aF0.41459502806736165
aF0.4986779481755685
aF0.6638655462184874
aF0.5968379446640316
aF0.6378446115288221
aF0.7454545454545455
aF0.803030303030303
aF0.8666666666666667
aF0.6666666666666666
aF0.4282384282384282
aF0.6290322580645161
aF1.0
aF0.5834767641996558
aF0.6512077294685991
aF0.7438316400580551
aF0.6093906093906094
aF0.5377448638318204
aF0.6364296081277213
aF0.38135934854470693
aF0.37349397590361444
aF0.717948717948718
aF0.82
aF0.6612244897959184
aF0.5272508280638362
aF0.7204751921733054
aF0.8932806324110671
aF0.7043189368770764
aF0.6645236703682057
aF0.6145833333333334
aF0.4630853994490358
aF0.8771929824561403
aF0.6394557823129252
aF0.8300653594771242
aF0.6462585034013606
aF0.8761904761904762
aF0.6549019607843137
aF0.7897897897897898
aF0.5133161512027491
aF0.6142270861833106
aF0.6234796404019037
aF0.7353846153846154
aF0.6666666666666666
aF0.6021303258145363
aF0.7714285714285715
aF1.0
aF0.8382352941176471
aF0.5184102863822326
aF0.4728682170542636
aF0.4827838827838828
aF0.6
aF0.6884615384615385
aF0.7090909090909091
aF0.4704647676161919
aF0.7833333333333333
aF0.9
aF0.6123680241327301
aF0.5365967365967366
aF0.7318840579710145
aF0.6390572390572391
aF0.5251042535446205
aF0.3244460457575212
aF0.3060985797827903
aF0.6508951406649617
aF0.704126426690079
aF0.4923845193508115
aF0.5539986329460014
aF0.6606060606060606
aF0.5885057471264368
aF0.727104532839963
aF0.6931216931216931
aF0.6231707317073171
aF0.4576890034364261
aF0.47300469483568075
aF0.4486683848797251
aF0.5218476903870163
aF0.8333333333333334
aF0.6727060198714202
aF0.7412244897959184
aF0.35074081456381634
aF0.590373783922171
aF0.35219787605861
aF0.7373737373737373
aF0.6370221327967807
aF0.3883061383061383
aF0.349673466096912
aF1.0
aF0.8809523809523809
aF0.7150997150997151
aF0.9242424242424242
aF0.6657183499288762
aF0.7037037037037037
aF0.0
aF0.0
aF0.7
aF0.6956521739130435
aF0.9722222222222222
aF1.0
aF0.0
aF0.0
aF0.5862474287393477
aF0.6306306306306306
aF0.6110154905335629
aF0.7962347729789591
aF0.8031914893617021
aF0.7139001349527665
aF0.467217414109625
aF0.5199332777314428
aF0.7083333333333334
aF0.7685492801771872
aF0.8206896551724138
aF0.7461660497091486
aF0.6428571428571429
aF0.8589743589743589
aF0.6100603621730383
aF0.6703296703296703
aF0.6349924585218703
aF0.534850640113798
aF0.6257309941520468
aF0.7352941176470589
aF0.6739495798319328
aF0.7103448275862069
aF1.0
aF0.75
aF0.64
aF0.32481726418378004
aF1.0
aF0.6083333333333333
aF0.761344537815126
aF0.7454545454545455
aF0.7155049786628734
aF0.5867283950617284
aF0.5442439862542955
aF1.0
aF0.0
aF0.8095238095238095
aF0.803921568627451
aF0.8333333333333334
aF0.8465608465608465
aF1.0
aF0.9272727272727272
aF0.0
aF1.0
aF0.7359307359307359
aF0.7168627450980393
aF0.8817733990147784
aF0.70020964360587
aF0.726063829787234
aF0.8205128205128205
aF0.6817906836055656
aF0.8095238095238095
aF1.0
aF0.7111111111111111
aF0.5181942544459645
aF0.7454545454545455
aF0.5422322775263951
aF0.6985294117647058
aF0.5098039215686274
aF0.525
aF0.5379310344827586
aF0.4508158508158508
aF0.4310226492793411
aF0.9142857142857143
aF0.5222816399286988
aF0.465166908563135
aF0.0
aF0.8857142857142857
aF0.7857142857142857
aF0.7904761904761904
aF0.39224381198097236
aF0.751219512195122
aF0.8571428571428571
aF0.9333333333333333
aF0.0
aF1.0
aF0.7021040974529347
aF0.7567567567567568
aF0.7333333333333333
aF0.8888888888888888
aF0.4996265870052278
aF0.525479195885928
aF0.9238095238095239
aF0.6042780748663101
aF0.8817733990147784
aF0.7582417582417582
aF0.65
aF0.5501165501165501
aF0.513432364096081
aF0.6440677966101694
aF0.553623188405797
aF0.48695652173913045
aF0.5485133020344288
aF0.49775112443778113
aF0.7620967741935484
aF0.6434833430742256
aF0.7843137254901961
aF0.8633333333333333
aF0.6313725490196078
aF0.6225716928769658
aF0.75
aF1.0
aF0.8
aF0.8
aF0.6916666666666667
aF0.6666666666666666
aF0.611578947368421
aF0.0
aF0.7205128205128205
aF0.47479365079365077
aF0.0
aF0.6682926829268293
aF0.35672020287404904
aF0.6571428571428571
aF0.41853960643292376
aF0.3528605439722964
aF0.8663101604278075
aF0.7512820512820513
aF1.0
aF0.0
aF0.6001021450459653
aF0.5522558537978298
aF1.0
aF0.9090909090909091
aF0.7290322580645161
aF0.9743589743589743
aF1.0
aF0.7714285714285715
aF0.8070175438596491
aF0.6795434591747147
aF0.7036199095022625
aF0.4143356643356643
aF0.5964457608293224
aF0.6801801801801802
aF0.7134146341463414
aF0.3962512664640324
aF0.379626733395892
aF0.4186423505572442
aF0.43937728937728937
aF0.7777777777777778
aF0.6909090909090909
aF0.8333333333333334
aF0.6974789915966386
aF0.6923076923076923
aF0.6900584795321637
aF0.5887096774193549
aF0.6761904761904762
aF0.6111111111111112
aF0.5473684210526316
aF0.6553030303030303
aF0.5617283950617284
aF0.7642512077294686
aF0.5737246680642907
aF0.567283950617284
aF0.7574750830564784
aF0.6160506160506161
aF0.6797385620915033
aF0.6098360655737705
aF0.6985507246376812
aF0.6771488469601677
aF0.5359781121751026
aF0.8366013071895425
aF0.7290322580645161
aF1.0
aF0.725177304964539
aF0.0
aF1.0
aF0.4359295172557606
aF0.4790678769814388
aF0.7833333333333333
aF0.8131868131868132
aF0.3512167238281888
aF0.4353998203054807
aF0.9818181818181818
aF0.8055555555555556
aF0.5161822304679448
aF0.4554541503694046
aF0.43999570631172175
aF0.3823757763975155
aF0.9044117647058824
aF0.8380952380952381
aF0.8695652173913043
aF0.49417792268281324
aF0.6666666666666666
aF0.35560204891421976
aF1.0
aF0.7548387096774194
aF0.6293877551020408
aF0.77
aF0.5466269841269841
aF0.5627450980392157
aF0.7790697674418605
aF0.6133209990749307
aF1.0
aF0.33422378726246127
aF0.7411764705882353
aF0.9555555555555556
aF0.5682983682983683
aF0.6830517153097798
aF0.6733333333333333
aF0.8695652173913043
aF1.0
aF0.9166666666666666
aF0.8365591397849462
aF0.0
aF0.6373668188736682
aF0.5745814307458144
aF0.5379746835443038
aF0.8571428571428571
aF0.6857142857142857
aF0.6316131126257708
aF0.696969696969697
aF0.5953570379077284
aF0.7476190476190476
aF0.28741616246892737
aF0.30737347294938916
aF0.6550724637681159
aF0.5702370500438981
aF0.5563128854268095
aF0.5419354838709678
aF0.8727272727272727
aF0.8161764705882353
aF0.7670454545454546
aF0.27930489731437597
aF0.6203921568627451
aF0.6263693270735524
aF0.7391304347826086
aF0.0
aF0.7428571428571429
aF0.5652173913043478
aF0.6923076923076923
aF0.7137681159420289
aaa(lp7
S'N51221.graphml'
p8
a(lp9
F0.6913265306122449
aF0.719327731092437
aF0.42247191011235957
aF0.35978835978835977
aF0.5712962962962963
aF0.5508417508417508
aF0.5692307692307692
aF0.7573529411764706
aF0.6666666666666666
aF1.0
aF0.6666666666666666
aF0.47020408163265304
aF0.4459770114942529
aF0.0
aF0.6442161339421614
aF0.6097959183673469
aF0.7387755102040816
aF0.7825396825396825
aF0.6545454545454545
aF0.590711175616836
aF0.373909830007391
aF0.4417910447761194
aF0.8566666666666667
aF0.7777777777777778
aF0.6952104499274311
aF0.6156462585034014
aF1.0
aF0.7971014492753623
aF0.7936507936507936
aF0.6388384754990926
aF0.6066302118933697
aF0.5084151472650772
aF0.8079710144927537
aF0.6701607267645003
aF0.8970588235294118
aF0.7619047619047619
aF0.7948717948717948
aF0.6095423563777994
aF0.7777777777777778
aF0.5355306217858813
aF0.5564439367980202
aF0.5251959686450168
aF0.7720588235294118
aF0.6666666666666666
aF0.6309178743961352
aF0.6274509803921569
aF0.5935938877461063
aF0.7426900584795322
aF0.38139773895169576
aF0.36015618368559543
aF0.4848625989753144
aF1.0
aF0.7629233511586453
aF0.717948717948718
aF0.5286545582789631
aF0.875
aF1.0
aF0.5717171717171717
aF0.6284461152882206
aF0.8761904761904762
aF0.6032432432432432
aF0.4988319856244385
aF0.3320297951582868
aF0.31577169875042216
aF0.7827260458839406
aF0.8005698005698005
aF0.5391782130912566
aF0.5161082474226805
aF0.6168067226890757
aF0.6245059288537549
aF0.670995670995671
aF0.7166666666666667
aF0.45913414870898855
aF0.5850340136054422
aF0.6102418207681366
aF0.5824858757062147
aF0.5787545787545788
aF0.7557932263814616
aF0.5689265536723164
aF0.6981132075471698
aF0.45590028451429343
aF0.6041666666666666
aF0.33422378726246127
aF0.7304439746300211
aF0.781183932346723
aF0.3633940062511491
aF0.4275983558426307
aF0.0
aF1.0
aF0.8676470588235294
aF0.8238095238095238
aF0.6411411411411412
aF0.825
aF0.0
aF0.0
aF0.6444444444444445
aF0.7984189723320159
aF0.6944444444444444
aF1.0
aF0.0
aF0.0
aF0.6346986346986347
aF0.6234988640051932
aF0.7576470588235295
aF0.7401129943502824
aF0.8888888888888888
aF0.8494623655913979
aF0.586593456874857
aF0.6021604938271605
aF0.6194797338173019
aF0.819047619047619
aF0.8791208791208791
aF0.5832892649391856
aF0.4977168949771689
aF0.572635814889336
aF0.4753521126760563
aF0.5131956397016638
aF0.5628205128205128
aF0.6285714285714286
aF0.52046783625731
aF0.7111111111111111
aF0.7507507507507507
aF0.7375565610859729
aF0.7454545454545455
aF0.6944444444444444
aF0.8611111111111112
aF0.41675320179993075
aF0.0
aF0.6998577524893315
aF0.7647058823529411
aF0.6458036984352774
aF0.7642642642642643
aF0.5658914728682171
aF0.6209876543209877
aF0.0
aF0.0
aF0.8846153846153846
aF0.8717948717948718
aF1.0
aF0.8095238095238095
aF0.725
aF1.0
aF0.0
aF0.8666666666666667
aF0.9
aF0.8431372549019608
aF0.7954545454545454
aF0.5754807692307692
aF0.6584699453551912
aF0.7579787234042553
aF0.6884862653419053
aF0.0
aF0.0
aF0.7572463768115942
aF0.6257459505541347
aF0.5204231560387893
aF0.46880570409982175
aF0.5916666666666667
aF0.5333333333333333
aF0.7142857142857143
aF0.5934664246823956
aF0.5026915113871636
aF0.5008525149190111
aF0.0
aF0.5087719298245614
aF0.5330216247808299
aF0.0
aF0.798941798941799
aF0.8300653594771242
aF0.8833333333333333
aF0.42625272331154684
aF0.7779390420899854
aF1.0
aF0.7571428571428571
aF0.0
aF0.7751322751322751
aF0.5014492753623189
aF0.6451486697965572
aF0.7363945578231292
aF0.9
aF0.4871968567944723
aF0.5415360501567398
aF0.5793573515092503
aF0.8461538461538461
aF0.7857142857142857
aF0.7307692307692307
aF0.5942028985507246
aF0.5852252252252252
aF0.518864659051575
aF0.7353658536585366
aF0.4722222222222222
aF0.6
aF0.549585672280139
aF0.6738366988586479
aF0.6772247360482655
aF0.6707070707070707
aF0.7596899224806202
aF0.7816091954022989
aF0.5754147812971342
aF0.46116504854368934
aF1.0
aF0.8333333333333334
aF0.6153846153846154
aF1.0
aF0.6428571428571429
aF0.8571428571428571
aF0.5880701754385965
aF0.0
aF0.7416666666666667
aF0.5645438898450946
aF0.0
aF0.8376068376068376
aF0.4013409961685824
aF0.5486158773735987
aF0.36510284587207664
aF0.42122823480346155
aF0.7016949152542373
aF0.7134238310708899
aF0.822463768115942
aF1.0
aF0.46019247594050744
aF0.5532147742818058
aF1.0
aF1.0
aF0.8382352941176471
aF0.8681318681318682
aF0.9
aF0.8279569892473119
aF0.7318181818181818
aF0.6472049689440994
aF0.701530612244898
aF0.34260247316552633
aF0.5759623861298854
aF0.753968253968254
aF0.7118279569892473
aF0.5362318840579711
aF0.45292420666142147
aF0.4131701631701632
aF0.47231121281464533
aF0.5761904761904761
aF0.6666666666666666
aF0.8222222222222222
aF0.6702898550724637
aF0.5265993265993266
aF0.5380116959064327
aF0.6470588235294118
aF0.6013071895424836
aF0.5815384615384616
aF0.6
aF0.8484848484848485
aF0.5073145245559039
aF0.6842105263157895
aF0.6915584415584416
aF0.5914556962025317
aF0.7092198581560284
aF0.6589259796806967
aF0.9272727272727272
aF0.7980295566502463
aF0.7076923076923077
aF0.6610761705101328
aF0.5712025316455697
aF0.7237076648841355
aF0.8359788359788359
aF0.707641196013289
aF0.8433333333333334
aF0.8333333333333334
aF1.0
aF0.4476058292852186
aF0.48349543177129384
aF0.8731884057971014
aF0.8
aF0.3091860857818305
aF0.3759578544061303
aF0.8888888888888888
aF0.8787878787878788
aF0.5296052631578947
aF0.4682127149140344
aF0.4375483870967742
aF0.4299864456261078
aF1.0
aF0.8157894736842105
aF0.8453781512605042
aF0.5287280701754385
aF0.6666666666666666
aF0.3159019283157951
aF1.0
aF0.7111111111111111
aF0.8226600985221675
aF0.9454545454545454
aF0.7379679144385026
aF0.6463276836158192
aF0.7585858585858586
aF0.44842578710644676
aF0.0
aF0.35211822660098524
aF0.5865546218487395
aF0.6658823529411765
aF0.5170454545454546
aF0.7127659574468085
aF0.7111111111111111
aF0.8181818181818182
aF0.9
aF0.9642857142857143
aF0.875
aF0.9333333333333333
aF0.783625730994152
aF0.592283950617284
aF0.5470616340181558
aF0.7056277056277056
aF0.8888888888888888
aF0.7677419354838709
aF0.9238095238095239
aF0.6532467532467533
aF0.5060045439792276
aF0.2944524151123864
aF0.31943037262186197
aF0.7777777777777778
aF0.7361344537815127
aF0.4810671256454389
aF0.5392405063291139
aF0.7677119628339141
aF0.8263157894736842
aF0.6604010025062657
aF0.32773207990599296
aF0.6372881355932203
aF0.5352112676056338
aF1.0
aF0.0
aF0.5935483870967742
aF0.6666666666666666
aF0.7105263157894737
aF0.6876876876876877
aaa(lp10
S'N51231.graphml'
p11
a(lp12
F0.7363552266419982
aF0.7560483870967742
aF0.36835016835016837
aF0.3862700228832952
aF0.6475409836065574
aF0.5267080745341615
aF0.701010101010101
aF0.8909090909090909
aF0.8245614035087719
aF0.8333333333333334
aF1.0
aF0.39806763285024155
aF0.5874822190611664
aF0.0
aF0.5839013307367737
aF0.6626262626262627
aF0.6666666666666666
aF0.6893360160965795
aF0.5146396396396397
aF0.5002288329519451
aF0.4647235715938006
aF0.4243779703662287
aF0.7145098039215686
aF0.7912912912912913
aF0.6386473429951691
aF0.5660919540229885
aF0.9555555555555556
aF0.7634920634920634
aF0.7733333333333333
aF0.6409574468085106
aF0.6037037037037037
aF0.5415952788882543
aF0.7606060606060606
aF0.6003742314889067
aF0.8028792912513842
aF0.7939024390243903
aF0.8476190476190476
aF0.5151232262882748
aF0.8656126482213439
aF0.4639050387596899
aF0.5576754385964913
aF0.504950495049505
aF0.670150987224158
aF1.0
aF0.6533776301218162
aF0.7333333333333333
aF0.7935483870967742
aF0.9722222222222222
aF0.5058717253839206
aF0.43239533287577214
aF0.4429505813953488
aF1.0
aF0.7941176470588235
aF0.5777777777777777
aF0.5027691242644514
aF0.7516339869281046
aF1.0
aF0.7161290322580646
aF0.6714975845410628
aF0.8043478260869565
aF0.6578947368421053
aF0.7431059506531205
aF0.3677796562411947
aF0.40976361767728675
aF0.7314009661835749
aF0.9021164021164021
aF0.40598837781936375
aF0.5107786357786358
aF0.6343434343434343
aF0.6022201665124884
aF0.6405797101449275
aF0.7254901960784313
aF0.6318027210884354
aF0.39260584376863444
aF0.5510204081632653
aF0.4655844155844156
aF0.5393041237113402
aF1.0
aF0.7777777777777778
aF0.7322695035460993
aF0.3115284974093264
aF0.6557692307692308
aF0.34136310223266747
aF0.6720647773279352
aF0.8756613756613757
aF0.3913517441860465
aF0.33601651186790504
aF0.0
aF0.7816091954022989
aF0.807936507936508
aF0.9558823529411765
aF0.8051948051948052
aF0.7226173541963016
aF0.0
aF0.0
aF0.8095238095238095
aF0.7075268817204301
aF1.0
aF0.8611111111111112
aF0.0
aF0.0
aF0.5575035063113605
aF0.6856719733432062
aF0.6233538191395961
aF0.7390648567119156
aF0.8478260869565217
aF0.7237903225806451
aF0.49951465734808775
aF0.5801120448179272
aF0.6148893360160966
aF0.6701298701298701
aF0.8893280632411067
aF0.6219096334185849
aF0.596078431372549
aF0.7555555555555555
aF0.49817136886102403
aF0.7619047619047619
aF0.5702213279678069
aF0.75
aF0.6944444444444444
aF0.7222222222222222
aF0.7483870967741936
aF1.0
aF0.9
aF0.6944444444444444
aF0.6666666666666666
aF0.3920140927774516
aF1.0
aF0.7142857142857143
aF0.7094017094017094
aF0.8
aF0.6335034013605442
aF0.6146892655367232
aF0.6090074584050488
aF1.0
aF0.0
aF0.7952380952380952
aF1.0
aF0.8333333333333334
aF1.0
aF0.8
aF0.8333333333333334
aF1.0
aF0.8363636363636363
aF0.6470588235294118
aF0.7792792792792793
aF0.773015873015873
aF0.6700564971751413
aF0.7729789590254706
aF0.7855072463768116
aF0.7733580018501388
aF0.7789473684210526
aF0.6666666666666666
aF0.9338235294117647
aF0.5924184543050249
aF0.6473118279569893
aF0.6003787878787878
aF0.6666666666666666
aF0.45454545454545453
aF0.6061538461538462
aF0.8545454545454545
aF0.45645645645645644
aF0.5310344827586206
aF0.0
aF0.7555555555555555
aF0.5575757575757576
aF0.0
aF0.8596491228070176
aF0.7780487804878049
aF0.7507246376811594
aF0.3553651570787434
aF0.8359788359788359
aF0.8042328042328042
aF0.8833333333333333
aF0.9090909090909091
aF0.7789473684210526
aF0.7323549965059399
aF0.7272727272727273
aF0.7556818181818182
aF0.8166666666666667
aF0.5676063067367415
aF0.5697079193014153
aF0.8547008547008547
aF0.8205128205128205
aF0.7962962962962963
aF0.4
aF0.6363636363636364
aF0.5343784994400896
aF0.5592451027233636
aF0.6821548821548822
aF0.49213943950786054
aF0.553968253968254
aF0.59375
aF0.506156743444879
aF0.7698924731182796
aF0.7632575757575758
aF0.718931475029036
aF0.9230769230769231
aF0.5985964912280701
aF0.6253246753246753
aF0.6
aF0.8333333333333334
aF1.0
aF1.0
aF0.6623376623376623
aF0.8268398268398268
aF0.5166379804934021
aF0.0
aF0.6995073891625616
aF0.49622560888762285
aF1.0
aF0.7545098039215686
aF0.3498452012383901
aF0.6389189189189189
aF0.44066785927251045
aF0.3671423599025409
aF0.6694915254237288
aF0.8523809523809524
aF0.6666666666666666
aF1.0
aF0.6037296037296037
aF0.6723744292237442
aF0.8888888888888888
aF1.0
aF0.8897058823529411
aF0.8916666666666667
aF0.8909090909090909
aF0.8744588744588745
aF0.8482758620689655
aF0.5094886281326959
aF0.8947368421052632
aF0.37585139318885447
aF0.579423521986114
aF0.9142857142857143
aF0.6978142076502732
aF0.463568215892054
aF0.49183829138062546
aF0.4231800766283525
aF0.4277805118110236
aF0.6071428571428571
aF0.5619047619047619
aF0.7222222222222222
aF0.6666666666666666
aF0.6143790849673203
aF0.492896174863388
aF0.6257309941520468
aF0.4089068825910931
aF0.6666666666666666
aF0.5108695652173914
aF0.7002902757619739
aF0.575787082116196
aF0.7823613086770982
aF0.636700158646219
aF0.5617977528089888
aF0.6779788838612368
aF0.5768421052631579
aF0.6167557932263814
aF0.7763440860215054
aF0.656497175141243
aF0.5767565767565768
aF0.5088520845231297
aF0.7318840579710145
aF0.693719806763285
aF0.8746438746438746
aF0.7509881422924901
aF0.0
aF1.0
aF0.40173697270471465
aF0.5095188646590516
aF0.7200929152148664
aF0.7495798319327731
aF0.32987012987012987
aF0.275480708809853
aF1.0
aF0.9444444444444444
aF0.5640486208508649
aF0.5203898050974513
aF0.5383420695010678
aF0.4595110316040549
aF0.8
aF0.8473684210526315
aF0.8304093567251462
aF0.5512645249487355
aF0.7777777777777778
aF0.29788666735729824
aF0.6833333333333333
aF0.803030303030303
aF0.6130536130536131
aF0.8611111111111112
aF0.5912457912457912
aF0.5250333142965924
aF0.7312312312312312
aF0.44420485175202157
aF0.0
aF0.3609923011120616
aF0.7297297297297297
aF1.0
aF0.6609756097560976
aF0.7265700483091787
aF0.7320261437908496
aF0.8205128205128205
aF0.8909090909090909
aF0.7066666666666667
aF0.9333333333333333
aF0.7323076923076923
aF0.7094474153297683
aF0.6917293233082706
aF0.6806429070580013
aF0.875
aF0.7876923076923077
aF0.6563380281690141
aF0.72
aF0.7198067632850241
aF0.7525641025641026
aF0.32447817836812143
aF0.30750836920133906
aF0.634978229317852
aF0.6101694915254238
aF0.5579710144927537
aF0.5541125541125541
aF1.0
aF0.9487179487179487
aF0.6577540106951871
aF0.32071428571428573
aF0.44853479853479855
aF0.6466198419666374
aF0.6292682926829268
aF0.0
aF0.6684210526315789
aF0.5014245014245015
aF0.7564102564102564
aF0.6363636363636364
aaa(lp13
S'N51383.graphml'
p14
a(lp15
F0.707936507936508
aF0.8315789473684211
aF0.5949648278415401
aF0.4989838775233708
aF0.6830917874396135
aF0.6270161290322581
aF0.5862068965517241
aF0.7692307692307693
aF0.7142857142857143
aF0.8333333333333334
aF0.8928571428571429
aF0.5179319981369352
aF0.4875679875679876
aF0.0
aF0.724025974025974
aF0.6523809523809524
aF0.7278911564625851
aF0.7168568920105356
aF0.5694586312563841
aF0.6244979919678715
aF0.4927536231884058
aF0.5377372157033175
aF0.6896551724137931
aF0.8005698005698005
aF0.8717948717948718
aF1.0
aF0.7411764705882353
aF0.828042328042328
aF0.45397286821705424
aF0.4515673289183223
aF0.6705370101596516
aF0.5766752577319587
aF0.7425287356321839
aF0.6857764876632801
aF0.7112299465240641
aF0.7983870967741935
aF0.9340659340659341
aF0.6224350205198358
aF0.8009661835748793
aF0.46580645161290324
aF0.6041165463779739
aF0.5939637826961771
aF0.9090909090909091
aF0.9393939393939394
aF0.6205533596837944
aF0.7666666666666667
aF0.6037095088819227
aF0.7557932263814616
aF0.4559984017580661
aF0.430494468879115
aF0.45992432060543514
aF0.9523809523809523
aF0.6304347826086957
aF0.7065217391304348
aF0.48224769359798714
aF1.0
aF1.0
aF0.5329268292682927
aF0.5042075736325385
aF1.0
aF0.6257459505541347
aF0.6205198358413133
aF0.3972413793103448
aF0.40276589677787283
aF0.8023049645390071
aF0.6869095816464238
aF0.466364586964099
aF0.44425465838509315
aF0.5723787167449139
aF0.6625544267053701
aF0.6688311688311688
aF0.7521367521367521
aF0.6293877551020408
aF0.6381064162754304
aF0.5540334855403348
aF0.6062927496580027
aF0.5963585434173669
aF0.7222222222222222
aF0.6119955572010366
aF0.4258474576271186
aF0.4131276582238304
aF0.8761904761904762
aF0.4343220338983051
aF0.875
aF0.9
aF0.36244168847422914
aF0.3891155608561923
aF1.0
aF0.806060606060606
aF0.7352425482174167
aF0.8266666666666667
aF0.5575091575091575
aF0.6635367762128326
aF1.0
aF0.9
aF0.803921568627451
aF0.8545454545454545
aF0.7789473684210526
aF0.6666666666666666
aF0.0
aF0.0
aF0.5574387947269304
aF0.5592079207920793
aF0.7380952380952381
aF0.8046757164404224
aF0.6557894736842105
aF0.7158536585365853
aF0.6290123456790123
aF0.7005649717514124
aF0.6479591836734694
aF0.5627387599177197
aF0.8235294117647058
aF0.7865761689291101
aF0.6076754385964912
aF0.7142857142857143
aF0.637155297532656
aF0.5808857808857809
aF0.5100934832678499
aF0.6771771771771772
aF0.6151260504201681
aF0.8
aF0.5990384615384615
aF0.6818181818181818
aF0.7784765897973445
aF0.7777777777777778
aF0.7424242424242424
aF0.34993038150932887
aF0.5566742944317316
aF0.5820535983137609
aF0.6251526251526252
aF0.7632183908045977
aF0.6243194192377496
aF0.6334554334554334
aF0.4832476875642343
aF0.7751412429378531
aF0.7132867132867133
aF0.6898954703832753
aF0.7955865272938444
aF0.8713450292397661
aF0.8169934640522876
aF0.8241758241758241
aF0.853763440860215
aF1.0
aF0.8088235294117647
aF0.7564102564102564
aF0.8257575757575758
aF0.9181286549707602
aF0.8095238095238095
aF0.612602322482391
aF0.6751361161524501
aF0.7717717717717718
aF1.0
aF1.0
aF0.7004048582995951
aF0.6556962025316456
aF0.4764937000406449
aF0.4029708626928204
aF0.6761904761904762
aF0.680952380952381
aF0.6061643835616438
aF0.587458006718925
aF0.5649717514124294
aF0.5101949025487257
aF0.9169960474308301
aF0.623015873015873
aF0.5644504748982361
aF0.7630769230769231
aF0.8354978354978355
aF0.6173382173382174
aF0.8009049773755657
aF0.3838896160558464
aF0.7308377896613191
aF0.0
aF0.8666666666666667
aF0.7407407407407407
aF0.6412155260469867
aF0.7084886128364389
aF0.6524514811031665
aF0.8666666666666667
aF1.0
aF0.5031838504267715
aF0.5299354838709678
aF0.6759615384615385
aF0.8347578347578347
aF0.6404682274247492
aF0.8304093567251462
aF0.4528263103802672
aF0.6038461538461538
aF0.6086769759450171
aF0.7230576441102757
aF0.4444086108199629
aF0.48471678980153554
aF0.5961352657004831
aF0.6001564945226917
aF0.8128654970760234
aF1.0
aF0.9393939393939394
aF0.8475609756097561
aF0.5781109445277361
aF0.45508684863523574
aF0.8461538461538461
aF0.7714285714285715
aF0.6666666666666666
aF0.9555555555555556
aF0.6046068913002094
aF0.7517241379310344
aF0.6270707070707071
aF0.0
aF0.7346723044397463
aF0.5997286295793759
aF0.0
aF0.6028225806451613
aF0.478844169246646
aF0.5523609163160356
aF0.46464565024590826
aF0.3959966737942504
aF0.6331730769230769
aF0.6404697380307136
aF0.8095238095238095
aF0.9818181818181818
aF0.6626506024096386
aF0.6015683345780433
aF0.0
aF1.0
aF0.6289855072463768
aF0.8761904761904762
aF0.8823529411764706
aF0.7802197802197802
aF0.6952054794520548
aF0.6845679012345679
aF0.9111111111111111
aF0.3575657115794459
aF0.6177621283255086
aF0.8029556650246306
aF0.7803030303030303
aF0.6704225352112676
aF0.5750308587550697
aF0.41645382443876866
aF0.4128735632183908
aF0.7435897435897436
aF0.8928571428571429
aF0.8138528138528138
aF0.6644897959183673
aF0.5605278255880666
aF0.6124456646076413
aF0.6638888888888889
aF0.5566115702479338
aF0.7180790960451977
aF0.6221724524076148
aF0.7898550724637681
aF0.6502816180235536
aF0.7548821548821549
aF0.5371029767839339
aF0.5216586449463162
aF0.83
aF0.7968253968253968
aF0.7761904761904762
aF0.6818181818181818
aF0.6743589743589744
aF0.5473193473193473
aF0.6064386317907444
aF0.7984189723320159
aF0.8187134502923976
aF0.7463002114164905
aF0.707641196013289
aF0.7714285714285715
aF1.0
aF0.535178980779404
aF0.6049555867227676
aF0.6504967855055523
aF0.6284451925099936
aF0.3113293326059284
aF0.3493065518890483
aF0.7947368421052632
aF0.8188405797101449
aF0.43765049879600965
aF0.4737836561171469
aF0.5828282828282828
aF0.5564862542955327
aF0.9010989010989011
aF0.7865612648221344
aF0.0
aF0.6241963763880771
aF0.7193675889328063
aF0.3901880141010576
aF0.5302752293577981
aF0.5965324713488098
aF0.6149732620320856
aF0.7038961038961039
aF0.5858024691358025
aF0.6881632653061225
aF0.6887340301974448
aF0.39803737061432987
aF1.0
aF0.3756345177664975
aF0.5928462709284628
aF0.7806267806267806
aF0.645253164556962
aF0.6362047440699126
aF0.9111111111111111
aF0.8909090909090909
aF0.8571428571428571
aF1.0
aF0.7898550724637681
aF0.6234335839598998
aF0.6287678476996298
aF0.9285714285714286
aF0.6950354609929078
aF0.9285714285714286
aF0.8214285714285714
aF0.638095238095238
aF0.6305536568694463
aF0.8051948051948052
aF0.6870554765291608
aF0.30510938552636246
aF0.3093372145096283
aF0.8057040998217468
aF0.6181086519114688
aF0.587471600129828
aF0.5570676031606673
aF0.7248979591836735
aF0.6427350427350428
aF0.7466666666666667
aF0.3328849211202152
aF0.5414518900343642
aF0.70995670995671
aF0.5400948258091115
aF1.0
aF0.7346153846153847
aF0.5575396825396826
aF0.7777777777777778
aF0.7705627705627706
aaa(lp16
S'N51386.graphml'
p17
a(lp18
F0.8636363636363636
aF0.83
aF0.5871290038201586
aF0.4809917355371901
aF0.8315789473684211
aF0.5486205336951605
aF0.6538461538461539
aF0.7177177177177178
aF0.5113725490196078
aF0.9333333333333333
aF0.8363636363636363
aF0.5025210084033613
aF0.49917460317460316
aF0.0
aF0.6964569011105235
aF0.6206636500754148
aF0.6558922558922559
aF0.6145871899296557
aF0.49288874841972186
aF0.533879781420765
aF0.4709784411276949
aF0.4960047704233751
aF0.5957446808510638
aF0.8596491228070176
aF0.8104575163398693
aF0.7660818713450293
aF0.7206349206349206
aF0.7792792792792793
aF0.5
aF0.443741935483871
aF0.6788124156545209
aF0.5639097744360902
aF0.7532467532467533
aF0.5501028504260946
aF0.6515151515151515
aF0.7141025641025641
aF1.0
aF0.6115013169446883
aF0.0
aF0.4455922865013774
aF0.5851979345955249
aF0.5144855144855145
aF0.698005698005698
aF0.9090909090909091
aF0.5936139332365747
aF0.6078431372549019
aF0.7610241820768137
aF0.6753623188405797
aF0.469145675063308
aF0.40022396416573347
aF0.46174634237256545
aF0.8235294117647058
aF0.7178030303030303
aF0.5947368421052631
aF0.5336088154269972
aF0.9333333333333333
aF0.7543859649122807
aF0.5333333333333333
aF0.44939187796330654
aF0.9285714285714286
aF0.7074468085106383
aF0.6119402985074627
aF0.4076108590080408
aF0.362292757417103
aF0.6016830294530154
aF0.5455760491847099
aF0.37690875232774673
aF0.44667832167832167
aF0.5722334004024144
aF0.6180392156862745
aF0.7012987012987013
aF0.8150537634408602
aF0.7474509803921568
aF0.5326781326781327
aF0.5223470661672909
aF0.4997662459093034
aF0.517305227175616
aF0.6885369532428356
aF0.6087719298245614
aF0.5134453781512605
aF0.37622331691297206
aF0.5666666666666667
aF0.40946678072426573
aF0.7384615384615385
aF1.0
aF0.3548913655296634
aF0.3749224084419615
aF0.8
aF0.6478114478114478
aF0.6244306418219462
aF0.7009084556254368
aF0.6418018018018018
aF0.5844155844155844
aF1.0
aF1.0
aF0.7142857142857143
aF0.7169230769230769
aF0.8571428571428571
aF0.7142857142857143
aF0.0
aF0.0
aF0.5741224794622853
aF0.5350114416475973
aF0.7883597883597884
aF0.9298245614035088
aF0.663362952836637
aF0.8122332859174964
aF0.5488888888888889
aF0.6703962703962704
aF0.5282010157711842
aF0.5984313725490196
aF0.8484848484848485
aF0.6611030478955007
aF0.5513342379014021
aF0.6344827586206897
aF0.6964705882352941
aF0.6509803921568628
aF0.6635367762128326
aF0.8448275862068966
aF0.8142857142857143
aF0.7282608695652174
aF0.585404547858276
aF0.7660818713450293
aF0.7851335656213705
aF0.7736842105263158
aF0.7134502923976608
aF0.45124174071542494
aF0.8352272727272727
aF0.5771670190274841
aF0.6733615221987315
aF0.7176470588235294
aF0.6369230769230769
aF0.6061728395061728
aF0.46358053849787434
aF0.7748414376321353
aF0.7261904761904762
aF0.803076923076923
aF0.7936507936507936
aF0.8831168831168831
aF0.945054945054945
aF0.9444444444444444
aF0.9191176470588235
aF0.9333333333333333
aF0.82174688057041
aF0.8
aF0.7225806451612903
aF0.8029556650246306
aF0.7176470588235294
aF0.7071977638015374
aF0.6299722479185939
aF0.77
aF0.0
aF0.0
aF0.8888888888888888
aF0.6157646048109966
aF0.5385362065618327
aF0.5280898876404494
aF0.6926406926406926
aF0.7019704433497537
aF0.6138467234357645
aF0.5858585858585859
aF0.5856014047410009
aF0.5172129457843744
aF0.8205128205128205
aF0.5421686746987951
aF0.5450422593279736
aF0.7090909090909091
aF0.8333333333333334
aF0.5885167464114832
aF0.7316017316017316
aF0.39604037267080744
aF0.7832512315270936
aF1.0
aF0.8
aF0.8002322880371661
aF0.6086956521739131
aF0.611764705882353
aF0.6372180451127819
aF0.6718367346938775
aF0.698005698005698
aF0.5305061559507523
aF0.5298774259448417
aF0.6344262295081967
aF0.8689458689458689
aF0.8241758241758241
aF0.8659420289855072
aF0.47731660231660233
aF0.5741687979539642
aF0.5104555638536221
aF0.5781121751025992
aF0.4073994867408041
aF0.5135946622185155
aF0.6634920634920635
aF0.533135875601629
aF0.9090909090909091
aF0.8611111111111112
aF0.0
aF0.7517241379310344
aF0.5482479784366577
aF0.6241519674355496
aF0.7894736842105263
aF0.7916666666666666
aF0.9523809523809523
aF0.8928571428571429
aF0.4712322885358523
aF0.6384180790960452
aF0.6095360824742269
aF1.0
aF0.8681318681318682
aF0.5622377622377622
aF0.8888888888888888
aF0.7397849462365591
aF0.4328155504626093
aF0.5148902821316614
aF0.5077509842519685
aF0.39982685231945747
aF0.6830357142857143
aF0.6067588325652842
aF0.9047619047619048
aF0.8571428571428571
aF0.5668946648426813
aF0.5094245204336948
aF0.9523809523809523
aF0.0
aF0.7633333333333333
aF0.8285714285714286
aF0.8909090909090909
aF0.8076923076923077
aF0.5880665519219737
aF0.5490196078431373
aF0.7610837438423645
aF0.35222477431761123
aF0.5875
aF0.7447447447447447
aF0.8161764705882353
aF0.6526315789473685
aF0.5312097812097812
aF0.3954947248360422
aF0.3823094501949187
aF0.6600985221674877
aF0.9285714285714286
aF0.9004329004329005
aF0.7198581560283688
aF0.534202699611073
aF0.5712722298221614
aF0.6165790731008123
aF0.5246994060553383
aF0.5861111111111111
aF0.5511155511155511
aF0.8444444444444444
aF0.7075268817204301
aF0.813655761024182
aF0.48523622047244097
aF0.5569842197545295
aF0.8390151515151515
aF0.6967155835080363
aF0.6902439024390243
aF0.6082949308755761
aF0.5957446808510638
aF0.6008708272859217
aF0.5299145299145299
aF0.6785714285714286
aF0.6666666666666666
aF0.649895178197065
aF0.6114285714285714
aF1.0
aF0.6190476190476191
aF0.5055879899916598
aF0.49454759799587383
aF0.8297101449275363
aF0.623614663256607
aF0.32450864314468386
aF0.34740973312401885
aF0.7701149425287356
aF0.7263157894736842
aF0.446521287642783
aF0.4124839124839125
aF0.5206755969714618
aF0.538375350140056
aF1.0
aF0.9285714285714286
aF0.9047619047619048
aF0.5653846153846154
aF0.7407407407407407
aF0.3758209822725952
aF0.5298037763791188
aF0.556935817805383
aF0.6638655462184874
aF0.7439613526570048
aF0.565045045045045
aF0.6018808777429467
aF0.48564294631710364
aF0.48643570170287725
aF1.0
aF0.46188001889466224
aF0.7342342342342343
aF0.8105263157894737
aF0.6338738738738738
aF0.6303543098889477
aF0.9166666666666666
aF0.7222222222222222
aF0.6190476190476191
aF0.9722222222222222
aF0.8928571428571429
aF0.5818913480885312
aF0.6023017902813299
aF0.5288293535235876
aF0.6138763197586727
aF1.0
aF0.9722222222222222
aF0.7560975609756098
aF0.9120879120879121
aF0.7747035573122529
aF0.9090909090909091
aF0.3120103891751498
aF0.3465620673742501
aF0.825
aF0.5585081585081585
aF0.6420068027210885
aF0.5286274509803922
aF0.6108550947260625
aF0.6185250219490781
aF0.6310272536687631
aF0.3079468811528633
aF0.5451829723674384
aF0.6394957983193277
aF0.5884684684684685
aF0.0
aF0.5984233158146202
aF0.5356609410007468
aF0.6589106292966684
aF0.8928571428571429
aaa(lp19
S'N51404.graphml'
p20
a(lp21
F0.8174603174603174
aF0.8379446640316206
aF0.4578815679733111
aF0.37504356918787035
aF0.6275510204081632
aF0.5393154486586494
aF0.55049786628734
aF0.696969696969697
aF0.6798941798941799
aF0.8974358974358975
aF0.783625730994152
aF0.44761904761904764
aF0.4218381775333857
aF1.0
aF0.5426573426573427
aF0.7714285714285715
aF0.9111111111111111
aF0.6611030478955007
aF0.5570776255707762
aF0.5898617511520737
aF0.5013262599469496
aF0.47576279527559057
aF0.5578386605783866
aF0.701058201058201
aF0.7912087912087912
aF1.0
aF0.6447368421052632
aF0.585081585081585
aF0.47572815533980584
aF0.4657335907335907
aF0.5740384615384615
aF0.5518660005877167
aF0.7142857142857143
aF0.5719246031746031
aF0.738562091503268
aF0.7354497354497355
aF0.6274509803921569
aF0.775
aF0.7415384615384616
aF0.43749094596552224
aF0.6154295733489188
aF0.531883632089333
aF0.8070175438596491
aF0.7857142857142857
aF0.7052631578947368
aF0.6206349206349207
aF0.9004329004329005
aF0.7402439024390244
aF0.46485260770975056
aF0.3698630136986301
aF0.5278508771929824
aF0.7132284921369103
aF0.5942028985507246
aF0.6633064516129032
aF0.5288409703504043
aF0.8974358974358975
aF0.8857142857142857
aF0.581081081081081
aF0.532051282051282
aF0.9111111111111111
aF0.6602564102564102
aF0.8947368421052632
aF0.4266981379491214
aF0.44257560312606187
aF0.8441558441558441
aF0.5394383394383394
aF0.3797974848930263
aF0.43171225937183383
aF0.7145098039215686
aF0.6666666666666666
aF0.7692307692307693
aF0.8916666666666667
aF0.6828752642706131
aF0.6188657067293565
aF0.5523085914669784
aF0.5798946444249341
aF0.47458064516129034
aF0.5708245243128964
aF0.6501057082452432
aF0.5345790378006873
aF0.40102201257861636
aF0.6799259944495837
aF0.3531661708457289
aF0.6945031712473573
aF0.9111111111111111
aF0.3669952537422417
aF0.37082481254260397
aF0.8333333333333334
aF0.6322055137844611
aF0.7176470588235294
aF0.8842105263157894
aF0.6443046820405312
aF0.6797040169133193
aF0.8928571428571429
aF1.0
aF0.7368421052631579
aF0.6617647058823529
aF0.6944444444444444
aF0.75
aF0.0
aF0.0
aF0.5053729456384324
aF0.4913056292366637
aF0.6923076923076923
aF0.4
aF0.8571428571428571
aF0.9120879120879121
aF0.5392869505019038
aF0.6377049180327868
aF0.5512280701754386
aF0.5803623611922852
aF0.8666666666666667
aF0.5224403927068724
aF0.6010558069381599
aF0.6344086021505376
aF0.5115633672525439
aF0.6060606060606061
aF0.6756756756756757
aF0.7857142857142857
aF0.707936507936508
aF0.8761904761904762
aF0.5424050632911392
aF0.7520161290322581
aF0.7961352657004831
aF0.585792349726776
aF0.8142857142857143
aF0.3562130177514793
aF0.8804347826086957
aF0.5764705882352941
aF0.5263157894736842
aF0.5009276437847866
aF0.5314087142475274
aF0.5527582376897445
aF0.5283459964932787
aF0.6727272727272727
aF0.7781512605042017
aF0.8160919540229885
aF0.5884057971014492
aF0.8666666666666667
aF0.6666666666666666
aF0.7777777777777778
aF0.8222222222222222
aF0.8300653594771242
aF0.8571428571428571
aF0.8128654970760234
aF0.5705128205128205
aF0.6061643835616438
aF0.6590909090909091
aF0.6067901234567902
aF0.7134502923976608
aF0.7047619047619048
aF0.0
aF0.0
aF0.9523809523809523
aF0.5176999101527403
aF0.5774722369116869
aF0.4836003051106026
aF0.6142857142857143
aF0.698340874811463
aF0.8268398268398268
aF0.7142857142857143
aF0.5160839160839161
aF0.5422172452407614
aF0.0
aF0.6051712089447938
aF0.6576923076923077
aF0.9102564102564102
aF0.8538011695906432
aF0.6352941176470588
aF1.0
aF0.36909154194222066
aF0.726764500349406
aF0.8850806451612904
aF0.9
aF0.9090909090909091
aF0.6131907308377896
aF0.5551948051948052
aF0.552159858947987
aF0.6794871794871795
aF0.8928571428571429
aF0.46992864424057085
aF0.4963265306122449
aF0.7890243902439025
aF0.6592635885447107
aF0.6340852130325815
aF0.7142857142857143
aF0.4504941599281222
aF0.6072676450034941
aF0.5548045841904202
aF0.6431372549019608
aF0.5836419753086419
aF0.5396445659603555
aF0.6873015873015873
aF0.6099374021909233
aF0.825
aF0.8571428571428571
aF0.6535947712418301
aF1.0
aF0.4959071007043594
aF0.5381668946648427
aF0.8362573099415205
aF0.9242424242424242
aF0.780952380952381
aF0.9358974358974359
aF0.5959876543209877
aF0.5361344537815126
aF0.5493986254295533
aF1.0
aF0.9523809523809523
aF0.5797825448134
aF0.803030303030303
aF0.6798418972332015
aF0.43130699088145896
aF0.7090909090909091
aF0.4278976963540722
aF0.4126550868486352
aF0.5468227424749164
aF0.6493055555555556
aF0.7803030303030303
aF0.7
aF0.5327731092436975
aF0.5504273504273505
aF0.8
aF0.0
aF0.8455882352941176
aF0.7842105263157895
aF0.819047619047619
aF0.8095238095238095
aF0.6232876712328768
aF0.5342185903983657
aF0.6923076923076923
aF0.34753669359426553
aF0.508344733242134
aF0.6275510204081632
aF0.6615547329455315
aF0.498926116838488
aF0.6057276057276058
aF0.40372670807453415
aF0.3854700238078061
aF0.9333333333333333
aF1.0
aF0.6862745098039216
aF0.7878787878787878
aF0.5383191410588671
aF0.5443196004993758
aF0.5510388437217706
aF0.5343228200371057
aF0.6216466234967623
aF0.7495798319327731
aF0.9111111111111111
aF0.6175616835994194
aF1.0
aF0.5194805194805194
aF0.5654901960784313
aF0.7305458768873403
aF0.7678812415654521
aF0.7754010695187166
aF0.6522501461133839
aF0.5615171137835338
aF0.5281645569620254
aF0.5235087719298246
aF0.9642857142857143
aF0.8461538461538461
aF0.6661828737300436
aF0.6190476190476191
aF0.6666666666666666
aF1.0
aF0.45288045288045287
aF0.4975198412698413
aF0.6072708653353814
aF0.6111111111111112
aF0.3181394385165234
aF0.297353424128272
aF0.7842105263157895
aF0.9
aF0.47524314765694076
aF0.4167448649775832
aF0.5617283950617284
aF0.5009615384615385
aF0.7794117647058824
aF0.7368421052631579
aF1.0
aF0.48028673835125446
aF0.6584415584415585
aF0.35713314293485654
aF0.5733162830349531
aF0.6622807017543859
aF0.6021021021021021
aF0.6230769230769231
aF0.5613107822410148
aF0.5950888192267503
aF0.6252100840336134
aF0.3346029327747096
aF0.8095238095238095
aF0.432725430597771
aF0.8
aF0.7818181818181819
aF0.5386260358192997
aF0.7353535353535353
aF0.7472527472527473
aF1.0
aF0.8928571428571429
aF0.5678733031674208
aF0.9142857142857143
aF0.6316939890710382
aF0.5718918918918919
aF0.6737588652482269
aF0.693033381712627
aF0.0
aF0.7426900584795322
aF0.7238095238095238
aF0.9047619047619048
aF0.7439544807965861
aF0.7367864693446089
aF0.28117799840811025
aF0.32144278606965176
aF0.8363636363636363
aF0.5102040816326531
aF0.6911764705882353
aF0.5920634920634921
aF0.46930636661444236
aF0.5949512335054504
aF0.6111111111111112
aF0.32897483118477594
aF0.5859649122807018
aF0.562962962962963
aF0.5354954954954955
aF0.8928571428571429
aF0.5600549073438572
aF0.44580544082039597
aF0.6058441558441559
aF0.670995670995671
aaa(lp22
S'N51406.graphml'
p23
a(lp24
F0.7804232804232805
aF0.7727272727272727
aF0.45182072829131653
aF0.4263157894736842
aF0.5873573309920983
aF0.5753931544865865
aF0.5878048780487805
aF0.6555555555555556
aF0.6538461538461539
aF0.8
aF0.0
aF0.5745967741935484
aF0.6857142857142857
aF0.0
aF0.53903693314633
aF0.6694805194805195
aF0.8666666666666667
aF0.7067348678601876
aF0.42861305361305363
aF0.45806451612903226
aF0.43666115094686525
aF0.4635452267031214
aF0.7393939393939394
aF0.8575498575498576
aF0.7655913978494624
aF0.5897815623843021
aF0.9010989010989011
aF0.8304093567251462
aF0.819047619047619
aF0.7008456659619451
aF0.6057692307692307
aF0.5018515253041792
aF0.8516129032258064
aF0.6227272727272727
aF0.8034188034188035
aF0.8275862068965517
aF0.9215686274509803
aF0.561711079943899
aF0.6919540229885057
aF0.5175026123301986
aF0.5971173644474949
aF0.5442622950819672
aF0.6548076923076923
aF1.0
aF0.6160761501850872
aF0.6545454545454545
aF0.7840909090909091
aF0.6672268907563025
aF0.3995947315096251
aF0.39348370927318294
aF0.680306905370844
aF1.0
aF0.6910299003322259
aF0.6545454545454545
aF0.5058470290771175
aF0.7557932263814616
aF0.9264705882352942
aF0.7278911564625851
aF0.5484593837535015
aF0.8192307692307692
aF0.5821972734562951
aF0.5344453711426188
aF0.35760913912688697
aF0.3450537338109672
aF0.7224310776942355
aF0.8115942028985508
aF0.4540630182421227
aF0.4969053934571176
aF0.5855072463768116
aF0.7263157894736842
aF0.8083333333333333
aF0.6428571428571429
aF0.49333333333333335
aF0.6681681681681682
aF0.5862068965517241
aF0.4742268041237113
aF0.6562774363476734
aF0.7008547008547008
aF0.6590136054421769
aF0.7023060796645703
aF0.4038160775727244
aF0.6877076411960132
aF0.3633210934312526
aF0.8306878306878307
aF0.8076109936575053
aF0.36137410976120654
aF0.39458373003279384
aF0.0
aF1.0
aF0.9555555555555556
aF0.6807843137254902
aF0.7684729064039408
aF0.6434343434343435
aF0.0
aF0.0
aF0.7142857142857143
aF0.7777777777777778
aF1.0
aF1.0
aF0.0
aF0.0
aF0.6404697380307136
aF0.57955088389871
aF0.7389610389610389
aF0.768170426065163
aF0.7642642642642643
aF0.8631578947368421
aF0.4864665354330709
aF0.6042016806722689
aF0.5541247484909457
aF0.6638655462184874
aF0.9705882352941176
aF0.6047037539574853
aF0.5082417582417582
aF0.7664884135472371
aF0.5995192307692307
aF0.5033413525795242
aF0.686530612244898
aF0.6293785310734463
aF0.7114624505928854
aF0.5285714285714286
aF0.7043137254901961
aF0.9272727272727272
aF0.6703296703296703
aF0.5468531468531469
aF0.9333333333333333
aF0.38049217002237135
aF0.0
aF0.6284684684684685
aF0.7122507122507122
aF0.7076923076923077
aF0.8333333333333334
aF0.5275831087151842
aF0.742447516641065
aF0.0
aF0.0
aF0.8386243386243386
aF1.0
aF0.8187134502923976
aF0.8861538461538462
aF0.8333333333333334
aF0.0
aF1.0
aF1.0
aF0.7572463768115942
aF0.6471774193548387
aF0.9166666666666666
aF0.6679089026915114
aF0.7575187969924813
aF0.6870567375886525
aF0.7042665108123904
aF1.0
aF1.0
aF0.6930618401206636
aF0.6209876543209877
aF0.6292929292929293
aF0.5725689404934688
aF0.6
aF0.5317647058823529
aF0.5975975975975976
aF0.5693570451436388
aF0.5635610766045549
aF0.4449775112443778
aF0.5
aF0.574750830564784
aF0.4600648393751842
aF0.0
aF0.8629032258064516
aF0.6838709677419355
aF0.8537549407114624
aF0.38797065226154964
aF0.7662907268170426
aF0.9090909090909091
aF0.8476190476190476
aF1.0
aF0.776829268292683
aF0.7213930348258707
aF0.6668129938542581
aF0.773109243697479
aF0.783625730994152
aF0.5190377293181031
aF0.5019406924390623
aF0.6571428571428571
aF0.9523809523809523
aF0.7581699346405228
aF0.675
aF0.7282608695652174
aF0.5974025974025974
aF0.4944002357795461
aF0.6551912568306011
aF0.5657657657657658
aF0.44263590391908975
aF0.505982905982906
aF0.5868079289131921
aF0.7583333333333333
aF0.8285714285714286
aF0.7122507122507122
aF0.7023705004389815
aF0.5809435707678076
aF0.5800064913988965
aF0.0
aF0.8
aF0.6944444444444444
aF0.6666666666666666
aF0.7380952380952381
aF0.6877470355731226
aF0.604326923076923
aF0.0
aF0.8
aF0.5434173669467787
aF0.0
aF0.8238636363636364
aF0.41337535703732886
aF0.6353383458646616
aF0.39305247597930526
aF0.46956521739130436
aF0.7963414634146342
aF0.5645505727043293
aF0.8
aF1.0
aF0.529441201000834
aF0.5819482432148116
aF1.0
aF1.0
aF0.9743589743589743
aF1.0
aF0.6881720430107527
aF0.7548387096774194
aF0.6834381551362684
aF0.623350545037292
aF0.7393939393939394
aF0.35428172411604136
aF0.5758551307847083
aF0.6895622895622896
aF0.6922448979591836
aF0.4913056292366637
aF0.4219442529301684
aF0.5182389937106918
aF0.4219442529301684
aF0.6
aF0.6666666666666666
aF0.6
aF0.625
aF0.7662337662337663
aF0.5746031746031746
aF0.5705645161290323
aF0.6330645161290323
aF0.5294117647058824
aF0.5665322580645161
aF0.6722689075630253
aF0.5333333333333333
aF0.746031746031746
aF0.5760905760905761
aF0.6070861977789529
aF0.6338652482269503
aF0.6737254901960784
aF0.7575757575757576
aF0.8285714285714286
aF0.7870967741935484
aF0.6656565656565656
aF0.5311653116531165
aF0.7333333333333333
aF0.7965367965367965
aF0.9102564102564102
aF0.7145390070921985
aF0.0
aF1.0
aF0.5295049504950495
aF0.4846984126984127
aF0.791005291005291
aF0.7476923076923077
aF0.3288482548444598
aF0.3444172446620427
aF0.0
aF1.0
aF0.5215841584158416
aF0.4835696413678065
aF0.44042553191489364
aF0.433696766377784
aF1.0
aF0.8104575163398693
aF0.7430830039525692
aF0.49203876773970234
aF0.8333333333333334
aF0.3567939456484348
aF1.0
aF0.6815686274509803
aF0.6370192307692307
aF0.8142292490118577
aF0.6865021770682148
aF0.6019358741681791
aF0.6919518963922294
aF0.5768361581920904
aF0.0
aF0.365839749073282
aF0.635016835016835
aF0.7609195402298851
aF0.5956989247311828
aF0.7082125603864734
aF0.7333333333333333
aF0.8809523809523809
aF1.0
aF0.8
aF0.8833333333333333
aF0.8789473684210526
aF0.803030303030303
aF0.6060250391236307
aF0.5772784019975031
aF0.9047619047619048
aF0.8241758241758241
aF0.7207843137254902
aF0.6454081632653061
aF0.6005602240896358
aF0.6880570409982175
aF0.3150601492310035
aF0.33489461358313816
aF0.8476190476190476
aF0.7230769230769231
aF0.557155451072583
aF0.5789473684210527
aF0.7328042328042328
aF0.8133333333333334
aF0.6202020202020202
aF0.2879757637822154
aF0.7378151260504202
aF0.6821480406386067
aF0.9333333333333333
aF0.0
aF0.6142857142857143
aF0.5333333333333333
aF0.7333333333333333
aF0.717948717948718
aaa(lp25
S'N51620.graphml'
p26
a(lp27
F0.6615384615384615
aF1.0
aF0.45714285714285713
aF0.4358974358974359
aF0.8444444444444444
aF0.4413793103448276
aF0.6111111111111112
aF0.8235294117647058
aF0.75
aF1.0
aF0.8333333333333334
aF0.7333333333333333
aF0.3787755102040816
aF0.0
aF0.5070921985815603
aF0.5833333333333334
aF0.9142857142857143
aF0.8676470588235294
aF0.5423728813559322
aF0.6395173453996983
aF0.5227272727272727
aF0.5048643113159242
aF0.7195121951219512
aF0.8636363636363636
aF0.5145098039215686
aF0.6557971014492754
aF0.8484848484848485
aF0.6197964847363552
aF0.7142857142857143
aF0.7210526315789474
aF0.5604838709677419
aF0.5574912891986062
aF0.8451612903225807
aF0.66890756302521
aF0.7766666666666666
aF0.45737425404944587
aF0.8846153846153846
aF0.3986415882967607
aF0.9421052631578948
aF0.6574712643678161
aF0.4760522496371553
aF0.5900178253119429
aF1.0
aF0.5714285714285714
aF0.5833333333333334
aF0.8444444444444444
aF1.0
aF0.6813186813186813
aF0.5032377428307123
aF0.37521917007597894
aF0.5561224489795918
aF1.0
aF0.8611111111111112
aF0.6666666666666666
aF0.5858585858585859
aF0.589247311827957
aF0.9416666666666667
aF0.673202614379085
aF0.45521145521145523
aF0.7619047619047619
aF0.7766666666666666
aF0.6318027210884354
aF0.5875850340136054
aF0.39616963064295485
aF0.8611111111111112
aF0.9473684210526315
aF0.3619309082589796
aF0.37770724421209856
aF0.8681318681318682
aF0.5088652482269503
aF0.8333333333333334
aF0.9722222222222222
aF0.5769230769230769
aF1.0
aF0.44982993197278914
aF0.5184313725490196
aF0.7126984126984127
aF0.8666666666666667
aF0.819047619047619
aF0.5439613526570048
aF0.3530586766541823
aF0.6410256410256411
aF0.36619415807560135
aF0.7512315270935961
aF0.9333333333333333
aF0.3722897937599154
aF0.32542677448337826
aF0.0
aF1.0
aF0.7226173541963016
aF0.0
aF0.7032967032967034
aF0.6833333333333333
aF0.0
aF0.0
aF0.5357142857142857
aF0.8571428571428571
aF0.5714285714285714
aF0.7142857142857143
aF0.0
aF0.0
aF0.8831168831168831
aF0.593576965669989
aF0.8611111111111112
aF1.0
aF0.8758169934640523
aF1.0
aF0.5229508196721312
aF0.7076923076923077
aF0.72
aF0.7435897435897436
aF1.0
aF0.7321937321937322
aF0.6179591836734694
aF0.7142857142857143
aF0.5314285714285715
aF0.4199134199134199
aF0.6079365079365079
aF0.4199134199134199
aF0.6691176470588235
aF0.7619047619047619
aF0.5681159420289855
aF1.0
aF1.0
aF0.7058823529411765
aF0.6666666666666666
aF0.3374384236453202
aF0.0
aF0.5645863570391872
aF1.0
aF0.7619047619047619
aF0.9090909090909091
aF0.651219512195122
aF0.6222222222222222
aF0.0
aF0.0
aF0.8333333333333334
aF1.0
aF0.9333333333333333
aF0.9111111111111111
aF1.0
aF1.0
aF0.0
aF0.7047619047619048
aF0.0
aF0.9444444444444444
aF0.0
aF0.9230769230769231
aF0.6736353077816493
aF0.6126482213438735
aF0.8333333333333334
aF0.7
aF0.0
aF0.7833333333333333
aF0.653781512605042
aF0.45454545454545453
aF0.5099846390168971
aF0.6095238095238096
aF0.8666666666666667
aF0.7619047619047619
aF0.6506238859180036
aF0.35125657510227937
aF0.49184149184149184
aF0.0
aF0.4326241134751773
aF0.43425925925925923
aF0.7328042328042328
aF1.0
aF0.9454545454545454
aF0.8351648351648352
aF0.30633104500381386
aF0.8787878787878788
aF0.0
aF0.7540322580645161
aF0.0
aF0.6956521739130435
aF0.9642857142857143
aF0.7380952380952381
aF1.0
aF0.7435897435897436
aF0.4552238805970149
aF0.4266666666666667
aF0.0
aF0.9111111111111111
aF0.7619047619047619
aF0.7272727272727273
aF0.5172413793103449
aF0.6212624584717608
aF0.632051282051282
aF0.6153846153846154
aF0.44466800804828976
aF0.5142857142857142
aF0.5125313283208021
aF0.5696969696969697
aF0.75
aF0.7636363636363637
aF0.7867647058823529
aF0.780952380952381
aF1.0
aF0.5688405797101449
aF0.6410256410256411
aF1.0
aF0.7636363636363637
aF1.0
aF0.803921568627451
aF0.7142857142857143
aF0.732051282051282
aF0.0
aF0.0
aF0.5920444033302498
aF1.0
aF0.7301587301587301
aF0.3535531652265914
aF0.5967741935483871
aF0.36404040404040405
aF0.5195578231292517
aF0.6435897435897436
aF0.7066666666666667
aF0.8909090909090909
aF0.0
aF0.6099865047233468
aF0.6187755102040816
aF1.0
aF0.9333333333333333
aF0.8362573099415205
aF0.65
aF0.7333333333333333
aF0.7157894736842105
aF0.7426900584795322
aF0.6085946573751452
aF0.8458498023715415
aF0.2945126945126945
aF0.5492801771871539
aF0.68
aF0.6229885057471264
aF0.47866744593804794
aF0.29619805481874445
aF0.30678466076696165
aF0.3843947217441193
aF1.0
aF0.621505376344086
aF0.5359477124183006
aF0.48846153846153845
aF0.5441176470588235
aF0.49696969696969695
aF0.5424836601307189
aF0.534850640113798
aF0.6923076923076923
aF0.6088709677419355
aF0.825
aF0.5002644103648863
aF0.635846372688478
aF0.8152173913043478
aF0.3974960876369327
aF0.8681318681318682
aF0.6179401993355482
aF0.8857142857142857
aF0.8888888888888888
aF0.5769230769230769
aF0.7272727272727273
aF0.6012820512820513
aF0.6074332171893148
aF0.7186147186147186
aF0.0
aF0.5661424606845513
aF0.6666666666666666
aF1.0
aF0.29871266091738535
aF0.3476190476190476
aF0.6666666666666666
aF0.9
aF0.22749173358526217
aF0.2850934376358105
aF0.0
aF0.8571428571428571
aF0.41358024691358025
aF0.427536231884058
aF0.39878447872837774
aF0.4064983637213651
aF0.0
aF1.0
aF1.0
aF0.6336336336336337
aF0.672514619883041
aF0.33881188118811884
aF0.46153846153846156
aF0.6027874564459931
aF0.4179767600820232
aF0.734920634920635
aF0.5720720720720721
aF0.7936507936507936
aF0.8268398268398268
aF0.6944444444444444
aF0.0
aF0.4108527131782946
aF0.8333333333333334
aF0.7142857142857143
aF0.9083333333333333
aF0.7368421052631579
aF0.6444444444444445
aF0.9444444444444444
aF0.6666666666666666
aF0.5
aF0.8666666666666667
aF0.8545454545454545
aF0.7486772486772487
aF0.6
aF0.5835095137420718
aF0.6842105263157895
aF0.8833333333333333
aF0.9333333333333333
aF0.8823529411764706
aF0.580018501387604
aF0.6085946573751452
aF0.22946281610055363
aF0.2447227191413238
aF0.7619047619047619
aF0.8333333333333334
aF0.7512605042016807
aF0.5357142857142857
aF1.0
aF0.6926406926406926
aF0.7068965517241379
aF0.35540355677154584
aF0.6587301587301587
aF0.7536231884057971
aF0.9777777777777777
aF0.0
aF0.6666666666666666
aF0.8095238095238095
aF0.5900178253119429
aF0.7619047619047619
aaa(lp28
S'N51622.graphml'
p29
a(lp30
F0.8142857142857143
aF0.8246153846153846
aF0.3682539682539683
aF0.4601449275362319
aF0.8363636363636363
aF0.497737556561086
aF0.5411764705882353
aF0.6232993197278912
aF1.0
aF0.8055555555555556
aF0.5777777777777777
aF0.5399698340874811
aF0.4431818181818182
aF0.0
aF0.48422260470453243
aF0.6755260243632336
aF0.6553544494720965
aF0.7417417417417418
aF0.40075870478254977
aF0.43331391962725685
aF0.3724563206577595
aF0.3382867132867133
aF0.7807486631016043
aF0.7543859649122807
aF0.8079710144927537
aF0.6415458937198067
aF1.0
aF0.8496732026143791
aF0.7857142857142857
aF0.5604909409701929
aF0.6284013605442177
aF0.49971313826735514
aF0.8
aF0.5201931518876207
aF0.7927927927927928
aF0.810752688172043
aF0.8245614035087719
aF0.7256410256410256
aF0.6666666666666666
aF0.5081081081081081
aF0.6194797338173019
aF0.6936507936507936
aF1.0
aF1.0
aF0.6666666666666666
aF0.6274509803921569
aF0.8333333333333334
aF0.5305361305361306
aF0.5376984126984127
aF0.38294673539518903
aF0.5098245614035087
aF1.0
aF0.7523809523809524
aF0.7142857142857143
aF0.5409009009009009
aF0.75
aF0.9555555555555556
aF0.5502040816326531
aF0.6126855600539811
aF0.7047619047619048
aF0.7747899159663866
aF0.57009009009009
aF0.3695483870967742
aF0.33676064123825317
aF0.8416666666666667
aF0.7380952380952381
aF0.40431266846361186
aF0.357830271216098
aF0.5468844525105868
aF0.5741176470588235
aF0.8181818181818182
aF0.7142857142857143
aF0.4557823129251701
aF0.5753846153846154
aF0.5304347826086957
aF0.6394557823129252
aF0.6130867709815079
aF0.6285714285714286
aF0.8047619047619048
aF0.5693815987933635
aF0.4351648351648352
aF0.6728307254623044
aF0.3611274221961245
aF0.6507936507936508
aF0.624313725490196
aF0.399552071668533
aF0.34761290322580646
aF0.0
aF1.0
aF0.6402439024390244
aF1.0
aF0.6714285714285714
aF0.7218390804597701
aF0.0
aF0.0
aF0.8666666666666667
aF0.7636363636363637
aF1.0
aF0.7333333333333333
aF0.0
aF0.0
aF0.685064935064935
aF0.7314439946018894
aF0.7399577167019028
aF0.8201970443349754
aF0.6310204081632653
aF0.8545454545454545
aF0.6368627450980392
aF0.7247058823529412
aF0.6821705426356589
aF0.6951566951566952
aF0.7333333333333333
aF0.5829268292682926
aF0.6236786469344608
aF0.7362637362637363
aF0.6235294117647059
aF0.6428571428571429
aF0.6559139784946236
aF0.8095238095238095
aF0.5327635327635327
aF0.7435897435897436
aF0.7286821705426356
aF0.782051282051282
aF0.9642857142857143
aF0.6222222222222222
aF0.6916666666666667
aF0.3729138166894665
aF0.0
aF0.6461038961038961
aF0.8666666666666667
aF0.6764705882352942
aF0.581646423751687
aF0.5966873706004141
aF0.6184486373165619
aF0.0
aF0.0
aF0.8571428571428571
aF0.8181818181818182
aF0.0
aF0.75
aF0.9523809523809523
aF0.9111111111111111
aF0.0
aF0.8888888888888888
aF0.9642857142857143
aF0.8897058823529411
aF0.7307692307692307
aF0.7949579831932773
aF0.5739795918367347
aF0.6205673758865248
aF0.6401515151515151
aF0.0
aF0.0
aF0.8528138528138528
aF0.5573498964803313
aF0.6571428571428571
aF0.49393939393939396
aF0.5142857142857142
aF0.7965367965367965
aF1.0
aF0.6500711237553343
aF0.5307781649245064
aF0.48630672926447577
aF0.0
aF0.436431989063568
aF0.3846027846027846
aF0.0
aF0.791005291005291
aF0.5513698630136986
aF0.704201680672269
aF0.37570303712035996
aF0.706060606060606
aF0.8023715415019763
aF0.9523809523809523
aF0.8666666666666667
aF0.660377358490566
aF0.7230769230769231
aF0.6292966684294025
aF1.0
aF0.6888888888888889
aF0.5583972719522592
aF0.47046244319700614
aF0.8771929824561403
aF0.8181818181818182
aF0.6064935064935065
aF0.7222222222222222
aF0.6848484848484848
aF0.6110304789550073
aF0.5369104579630896
aF0.5948581560283688
aF0.4797747055811572
aF0.6086956521739131
aF0.475705329153605
aF0.4787283777466106
aF0.8666666666666667
aF0.7225806451612903
aF0.7978494623655914
aF0.8505747126436781
aF0.7581699346405228
aF0.4675324675324675
aF0.6111111111111112
aF0.7333333333333333
aF1.0
aF1.0
aF0.7058823529411765
aF0.7636363636363637
aF0.6329411764705882
aF0.0
aF0.8095238095238095
aF0.5045662100456622
aF0.9333333333333333
aF0.6213643574828134
aF0.3527728085867621
aF0.5542986425339367
aF0.4031996000499938
aF0.3839496459480724
aF0.8325123152709359
aF0.8005698005698005
aF1.0
aF0.9285714285714286
aF0.663973063973064
aF0.5926553672316384
aF1.0
aF1.0
aF0.8473684210526315
aF0.8285714285714286
aF1.0
aF0.8791208791208791
aF0.6748768472906403
aF0.6259877085162423
aF0.8319088319088319
aF0.3277707237438781
aF0.5863636363636363
aF0.7736842105263158
aF0.5691489361702128
aF0.5018633540372671
aF0.34461028192371473
aF0.3800442913385827
aF0.4196398233095481
aF0.8
aF0.9166666666666666
aF0.7142857142857143
aF0.49615384615384617
aF0.6274509803921569
aF0.5526315789473685
aF0.6666666666666666
aF0.6205533596837944
aF0.6523809523809524
aF0.5394088669950738
aF1.0
aF0.5027341079972659
aF0.7525641025641026
aF0.8068783068783069
aF0.43753501400560224
aF0.717607973421927
aF0.6234335839598998
aF0.7152496626180836
aF0.6366366366366366
aF0.7526315789473684
aF0.5763265306122449
aF0.5130434782608696
aF0.8518518518518519
aF0.8142857142857143
aF1.0
aF0.4987971130713713
aF0.0
aF1.0
aF0.462970297029703
aF0.49827882960413084
aF0.6920289855072463
aF1.0
aF0.3009145843540748
aF0.3285123966942149
aF0.8761904761904762
aF0.875
aF0.5387945387945388
aF0.4930232558139535
aF0.428009828009828
aF0.38025806451612904
aF0.8241758241758241
aF0.9333333333333333
aF0.9555555555555556
aF0.5560515873015873
aF0.5777777777777777
aF0.29201700519603213
aF0.8214285714285714
aF0.6772946859903382
aF0.5585081585081585
aF0.8713450292397661
aF0.6175084175084176
aF0.6084033613445378
aF0.5698924731182796
aF0.5641025641025641
aF0.0
aF0.3591670244740232
aF0.8319088319088319
aF0.8476190476190476
aF0.625
aF0.7857142857142857
aF0.7222222222222222
aF0.8176638176638177
aF1.0
aF0.7857142857142857
aF0.8666666666666667
aF0.6953846153846154
aF0.6397435897435897
aF0.6576923076923077
aF0.6007843137254902
aF0.782608695652174
aF0.8047619047619048
aF0.6861538461538461
aF0.7396870554765291
aF0.6881720430107527
aF0.7121212121212122
aF0.2736034376918355
aF0.2882701009397842
aF0.8214285714285714
aF0.5405405405405406
aF0.5605794556628622
aF0.8333333333333334
aF0.9696969696969697
aF0.7112010796221323
aF0.6956521739130435
aF0.3333333333333333
aF0.573502722323049
aF0.5335801163405606
aF1.0
aF0.0
aF0.5818181818181818
aF0.6666666666666666
aF0.7
aF0.7102272727272727
aaatp31
Rp32
s.