(dp0
S'number_non_zeros'
p1
ccollections
OrderedDict
p2
((lp3
(lp4
S'N51211.graphml'
p5
aI8292
aa(lp6
S'N51221.graphml'
p7
aI8258
aa(lp8
S'N51231.graphml'
p9
aI8319
aa(lp10
S'N51383.graphml'
p11
aI10527
aa(lp12
S'N51386.graphml'
p13
aI9898
aa(lp14
S'N51404.graphml'
p15
aI9185
aa(lp16
S'N51406.graphml'
p17
aI8585
aa(lp18
S'N51620.graphml'
p19
aI4880
aa(lp20
S'N51622.graphml'
p21
aI6554
aatp22
Rp23
s.