(dp0
S'number_non_zeros'
p1
ccollections
OrderedDict
p2
((lp3
(lp4
S'N51124.graphml'
p5
aI6672
aa(lp6
S'N51130.graphml'
p7
aI6264
aa(lp8
S'N51133.graphml'
p9
aI7745
aa(lp10
S'N51136.graphml'
p11
aI7574
aa(lp12
S'N51201.graphml'
p13
aI7816
aa(lp14
S'N51234.graphml'
p15
aI8777
aa(lp16
S'N51241.graphml'
p17
aI2794
aa(lp18
S'N51252.graphml'
p19
aI8907
aa(lp20
S'N51282.graphml'
p21
aI8554
aa(lp22
S'N51388.graphml'
p23
aI6967
aa(lp24
S'N51392.graphml'
p25
aI7926
aa(lp26
S'N51393.graphml'
p27
aI7736
aatp28
Rp29
s.