(dp0
S'clustering_coefficients'
p1
ccollections
OrderedDict
p2
((lp3
(lp4
S'N51124.graphml'
p5
a(lp6
F0.5907692307692308
aF0.9111111111111111
aF0.5033816425120773
aF0.3925233644859813
aF0.7378917378917379
aF0.531578947368421
aF0.4847417840375587
aF0.7777777777777778
aF0.47340823970037454
aF0.7272727272727273
aF0.605072463768116
aF0.483265306122449
aF0.43102888672508927
aF0.0
aF0.6462765957446809
aF0.7705627705627706
aF0.8205128205128205
aF0.67
aF0.8736842105263158
aF0.6904761904761905
aF0.5275519421860885
aF0.5207835642618251
aF1.0
aF1.0
aF0.40264026402640263
aF0.6454930429522081
aF0.6469344608879493
aF0.7878787878787878
aF0.4455327281414238
aF0.6352087114337568
aF0.5007527853056308
aF0.6007403490216816
aF0.8545454545454545
aF0.4697368421052632
aF0.7237237237237237
aF0.5774647887323944
aF0.9047619047619048
aF0.8
aF0.0
aF0.40633861551292744
aF0.5775667118950701
aF0.3303731695795938
aF1.0
aF0.8
aF0.6754032258064516
aF0.7555555555555555
aF0.8596059113300493
aF0.7005347593582888
aF0.3847985347985348
aF0.34976525821596244
aF0.45228548516439454
aF0.8972332015810277
aF0.6285714285714286
aF0.6102941176470589
aF0.4535355316522659
aF0.683076923076923
aF0.9333333333333333
aF0.47551299589603285
aF0.42358540454785826
aF0.7575757575757576
aF0.9761904761904762
aF0.7154150197628458
aF0.36941938468656027
aF0.34004576659038904
aF0.6880570409982175
aF0.7084785133565621
aF0.4985666507405638
aF0.5014985014985015
aF0.6086274509803922
aF0.8571428571428571
aF0.9047619047619048
aF0.6
aF0.782258064516129
aF0.5824858757062147
aF0.5514705882352942
aF0.5652173913043478
aF0.5886708626434654
aF0.9285714285714286
aF0.9871794871794872
aF0.4354890604890605
aF0.30335570469798656
aF0.7518939393939394
aF0.3988985051140834
aF0.6571428571428571
aF0.7479838709677419
aF0.28846153846153844
aF0.29325178115338085
aF0.0
aF0.8043478260869565
aF0.8888888888888888
aF1.0
aF0.6950757575757576
aF0.6534090909090909
aF0.0
aF0.0
aF0.6818181818181818
aF0.782051282051282
aF0.6081871345029239
aF0.7308377896613191
aF0.0
aF0.7784615384615384
aF0.5561771561771561
aF0.5622335890878091
aF0.7549407114624506
aF0.7908496732026143
aF0.803030303030303
aF0.5994350282485875
aF0.604040404040404
aF0.6125683060109289
aF0.7328687572590011
aF0.48484848484848486
aF0.7878787878787878
aF0.5942857142857143
aF0.6883116883116883
aF0.7121212121212122
aF0.6117424242424242
aF0.5604395604395604
aF0.6085946573751452
aF0.49846153846153846
aF0.5916666666666667
aF0.5217391304347826
aF0.6451612903225806
aF1.0
aF0.5460426179604262
aF0.7272727272727273
aF0.7333333333333333
aF0.3025054466230937
aF0.9111111111111111
aF0.6724137931034483
aF0.8583333333333333
aF0.75
aF0.7523809523809524
aF0.6363636363636364
aF0.7749287749287749
aF0.3333333333333333
aF1.0
aF0.0
aF0.8
aF0.0
aF0.8666666666666667
aF0.8545454545454545
aF1.0
aF1.0
aF1.0
aF0.8157894736842105
aF0.525149190110827
aF0.6908212560386473
aF0.7977207977207977
aF0.6162337662337662
aF0.6410256410256411
aF0.8233333333333334
aF0.7777777777777778
aF0.8333333333333334
aF1.0
aF0.3831264464548706
aF0.6
aF0.5825825825825826
aF1.0
aF0.5842105263157895
aF0.6785714285714286
aF0.6363636363636364
aF0.45666666666666667
aF0.58
aF0.9230769230769231
aF0.4
aF0.5824175824175825
aF1.0
aF0.8632478632478633
aF0.6878306878306878
aF0.0
aF0.30879883169039796
aF0.609000584453536
aF0.7609195402298851
aF0.807936507936508
aF0.8571428571428571
aF0.7071881606765328
aF0.822463768115942
aF0.7238095238095238
aF0.6646464646464646
aF0.6129032258064516
aF0.5195791934541204
aF0.5579234972677596
aF0.8235294117647058
aF0.8379446640316206
aF0.8131868131868132
aF0.7692307692307693
aF1.0
aF0.44649122807017544
aF0.6441441441441441
aF0.9555555555555556
aF0.4846994535519126
aF0.4523809523809524
aF0.5317073170731708
aF0.5946127946127946
aF0.5655844155844156
aF0.9916666666666667
aF1.0
aF0.8226600985221675
aF0.49624060150375937
aF0.6135265700483091
aF0.5
aF0.7142857142857143
aF0.7333333333333333
aF0.7272727272727273
aF0.7523809523809524
aF0.6666666666666666
aF0.5807525807525807
aF1.0
aF1.0
aF0.7015098722415796
aF0.0
aF0.8214285714285714
aF0.34199227136109916
aF0.5675043834015195
aF0.405982905982906
aF0.40628930817610065
aF0.7211948790896159
aF0.5757062146892655
aF0.0
aF0.0
aF0.5080321285140562
aF0.41428848767229665
aF1.0
aF1.0
aF0.7476190476190476
aF0.7916666666666666
aF0.6666666666666666
aF0.7301587301587301
aF0.8636363636363636
aF0.6308973172987974
aF0.629500580720093
aF0.3854518185226847
aF0.570426651081239
aF0.6536585365853659
aF0.9215686274509803
aF0.5451832907075874
aF0.3903693314633006
aF0.4599080694586313
aF0.3452263779527559
aF0.9
aF0.7189542483660131
aF0.6233766233766234
aF0.6110304789550073
aF0.556923076923077
aF0.5371980676328503
aF0.6108374384236454
aF0.54006734006734
aF0.6842105263157895
aF0.5156002115282919
aF0.0
aF0.5932267884322678
aF0.7431972789115646
aF0.5143256464011181
aF0.6156156156156156
aF0.5695399259650978
aF0.6785714285714286
aF1.0
aF0.8789473684210526
aF0.7359307359307359
aF0.5372340425531915
aF0.6215538847117794
aF0.7727272727272727
aF0.7606837606837606
aF0.8045977011494253
aF0.8466666666666667
aF1.0
aF0.0
aF0.3486712598425197
aF0.4256908140403286
aF0.9333333333333333
aF0.8210526315789474
aF0.34366035570854847
aF0.33744809785658175
aF1.0
aF0.6222222222222222
aF0.48997668997668997
aF0.5344064386317907
aF0.6974358974358974
aF0.5980519480519481
aF0.8333333333333334
aF0.8181818181818182
aF0.6505050505050505
aF0.6121553884711779
aF0.8571428571428571
aF0.2711490768806834
aF0.8727272727272727
aF0.7090909090909091
aF0.4835246205109219
aF0.7523809523809524
aF0.5837662337662337
aF0.5369369369369369
aF0.7619047619047619
aF0.3487954652810581
aF0.8947368421052632
aF0.36524822695035464
aF0.8366013071895425
aF0.9642857142857143
aF0.8666666666666667
aF0.7379679144385026
aF0.5921985815602837
aF0.695906432748538
aF1.0
aF0.9523809523809523
aF0.0
aF0.7857142857142857
aF0.8215384615384616
aF0.726530612244898
aF0.6586059743954481
aF0.8611111111111112
aF0.8666666666666667
aF0.6923076923076923
aF0.7094017094017094
aF0.6543385490753911
aF0.875
aF0.3190286975717439
aF0.23473433782712133
aF0.7904761904761904
aF0.7142857142857143
aF0.5559246954595792
aF0.47384615384615386
aF0.6793650793650794
aF0.7717391304347826
aF0.5879602571595558
aF0.3252236135957066
aF0.5689404934687954
aF0.5140664961636828
aF0.7263157894736842
aF0.0
aF0.48981858570899667
aF0.45473684210526316
aF0.7555555555555555
aF0.7121212121212122
aaa(lp7
S'N51130.graphml'
p8
a(lp9
F0.79
aF0.8562091503267973
aF0.465149359886202
aF0.3238095238095238
aF0.4817901234567901
aF0.4534829359513792
aF0.6
aF0.6632768361581921
aF0.8444444444444444
aF0.6666666666666666
aF0.0
aF0.4846153846153846
aF0.5143385753931545
aF0.0
aF0.4737341772151899
aF0.4780915287244401
aF0.6415094339622641
aF0.8611111111111112
aF0.47596656217345873
aF0.7051282051282052
aF0.5263474856970792
aF0.6323787258912916
aF0.5154275639141933
aF1.0
aF0.8455882352941176
aF0.8571428571428571
aF0.7151515151515152
aF0.8596491228070176
aF0.9358974358974359
aF0.5369674185463659
aF0.719758064516129
aF0.5706122448979591
aF0.9642857142857143
aF0.5897973445143256
aF0.855072463768116
aF0.719047619047619
aF0.8063241106719368
aF0.6558704453441295
aF0.7210526315789474
aF0.5844645550527904
aF0.5531645569620253
aF0.7282608695652174
aF0.8095238095238095
aF0.9
aF0.6494117647058824
aF0.7205882352941176
aF0.6627906976744186
aF0.6
aF0.34285100901674537
aF0.3162534435261708
aF0.5557422969187675
aF1.0
aF0.8857142857142857
aF0.8666666666666667
aF0.45554123711340205
aF0.7777777777777778
aF0.9242424242424242
aF0.7154150197628458
aF0.48465845464725643
aF0.7619047619047619
aF0.8257575757575758
aF0.607550482879719
aF0.6704374057315233
aF0.2620005511160099
aF0.9393939393939394
aF0.7538461538461538
aF0.708994708994709
aF0.4987199180747568
aF0.6623376623376623
aF0.6944444444444444
aF0.7802197802197802
aF1.0
aF0.6798029556650246
aF0.7835497835497836
aF0.4534412955465587
aF0.4717171717171717
aF0.0
aF0.5954415954415955
aF0.662020905923345
aF0.5639269406392694
aF0.5133181126331812
aF0.5790327815644272
aF0.47801256424900057
aF0.708974358974359
aF0.0
aF0.3804029304029304
aF0.33641946150212565
aF0.0
aF0.8461538461538461
aF0.6497175141242938
aF0.9523809523809523
aF0.8021978021978022
aF0.6236559139784946
aF0.0
aF0.0
aF0.9
aF0.7878787878787878
aF0.6666666666666666
aF1.0
aF0.0
aF0.0
aF0.6721113127646703
aF0.8125
aF0.8897058823529411
aF1.0
aF0.7827260458839406
aF0.0
aF0.544672718585762
aF0.7935897435897435
aF0.6693657219973009
aF0.7707509881422925
aF0.9272727272727272
aF0.8131868131868132
aF0.49264902432504676
aF0.5314009661835749
aF0.6515837104072398
aF0.39211076280041796
aF0.4634103332745548
aF0.5391180654338549
aF0.5333333333333333
aF0.5555555555555556
aF0.7237903225806451
aF0.8727272727272727
aF1.0
aF0.6947368421052632
aF0.8
aF0.38266796494644595
aF0.0
aF0.6571428571428571
aF0.0
aF0.6536796536796536
aF0.6841269841269841
aF0.5044955044955045
aF0.7031039136302294
aF0.0
aF1.0
aF0.8241758241758241
aF1.0
aF0.7878787878787878
aF0.7046153846153846
aF0.8717948717948718
aF0.7878787878787878
aF0.0
aF1.0
aF0.0
aF0.6361581920903955
aF1.0
aF0.6619607843137255
aF0.6545454545454545
aF0.6531713900134952
aF0.6707792207792208
aF0.7
aF0.0
aF0.8011695906432749
aF0.5156756756756756
aF0.6212121212121212
aF0.5030441400304414
aF1.0
aF0.6405228758169934
aF0.8666666666666667
aF0.6952380952380952
aF0.5620915032679739
aF0.46862745098039216
aF0.0
aF0.48188405797101447
aF0.41353781068217876
aF0.8833333333333333
aF0.9532163742690059
aF0.7338709677419355
aF0.0
aF0.37219523479065464
aF0.945054945054945
aF0.0
aF0.8007246376811594
aF0.9047619047619048
aF0.48673050615595076
aF0.8666666666666667
aF0.6423529411764706
aF0.7450980392156863
aF0.811965811965812
aF0.42052341597796145
aF0.6003700277520814
aF0.7992424242424242
aF0.7445887445887446
aF0.773015873015873
aF0.63
aF0.5502983802216539
aF0.530848861283644
aF0.6422077922077922
aF0.7112375533428165
aF0.389688078621279
aF0.4185606060606061
aF0.5059523809523809
aF0.4496478202931658
aF1.0
aF0.8338461538461538
aF0.7533333333333333
aF0.6418439716312057
aF0.62322695035461
aF0.6336134453781512
aF0.42857142857142855
aF1.0
aF0.4666666666666667
aF0.6666666666666666
aF0.546470999301188
aF0.9333333333333333
aF0.8575498575498576
aF0.0
aF0.0
aF0.7492492492492493
aF1.0
aF0.9122807017543859
aF0.4064249926318892
aF0.570230607966457
aF0.34279325765393875
aF0.4741248097412481
aF0.8874458874458875
aF0.558641975308642
aF0.0
aF1.0
aF0.6854838709677419
aF0.5327255726975222
aF0.7367424242424242
aF0.8928571428571429
aF0.7638326585695007
aF0.8596491228070176
aF0.9333333333333333
aF0.9615384615384616
aF0.717607973421927
aF0.5962709284627092
aF0.6906906906906907
aF0.35305010893246186
aF0.7433155080213903
aF0.9333333333333333
aF1.0
aF0.6015686274509804
aF0.377847604084839
aF0.3329702555509007
aF0.3711848593895775
aF0.6666666666666666
aF0.8
aF0.5960960960960962
aF0.5790934320074006
aF0.6476190476190476
aF0.5826612903225806
aF0.5238095238095238
aF0.6492063492063492
aF0.41911764705882354
aF0.6566666666666666
aF0.9523809523809523
aF0.5863063063063063
aF0.748221906116643
aF0.6367149758454106
aF0.6090909090909091
aF0.7586206896551724
aF0.717741935483871
aF0.6796536796536796
aF0.5
aF0.6340852130325815
aF0.6367149758454106
aF0.42961165048543687
aF0.8681318681318682
aF0.8840579710144928
aF1.0
aF0.7275747508305648
aF1.0
aF1.0
aF0.6150537634408603
aF0.5171717171717172
aF0.0
aF0.0
aF0.238955223880597
aF0.4336996336996337
aF0.0
aF0.8571428571428571
aF0.5163091389950044
aF0.5164107196627522
aF0.5006105006105006
aF0.6752688172043011
aF0.8333333333333334
aF0.8571428571428571
aF1.0
aF0.39197379197379195
aF0.5
aF0.30736441139125703
aF1.0
aF0.725
aF0.5755102040816327
aF0.7815384615384615
aF0.5664864864864865
aF0.5930930930930931
aF0.7644927536231884
aF0.5172413793103449
aF0.0
aF0.4515970515970516
aF0.6235294117647059
aF0.5411764705882353
aF0.7153931339977851
aF0.9
aF0.9047619047619048
aF0.8268398268398268
aF1.0
aF0.9047619047619048
aF0.8476190476190476
aF0.6666666666666666
aF0.7063492063492064
aF0.6291591046581972
aF0.6638477801268499
aF1.0
aF1.0
aF0.6588235294117647
aF0.819047619047619
aF0.62468671679198
aF0.8538011695906432
aF0.2291611303038356
aF0.3244708580961318
aF0.8571428571428571
aF0.783625730994152
aF0.5066394279877426
aF0.5323671497584541
aF0.0
aF0.9848484848484849
aF0.4891330891330891
aF0.27907995618838993
aF0.8461538461538461
aF1.0
aF1.0
aF0.0
aF0.6025641025641025
aF0.2777777777777778
aF0.7333333333333333
aF0.7543859649122807
aaa(lp10
S'N51133.graphml'
p11
a(lp12
F0.8380952380952381
aF0.9333333333333333
aF0.4124809741248097
aF0.46
aF0.5767607919506653
aF0.6560232220609579
aF0.5627705627705628
aF0.6265341905318527
aF0.58994708994709
aF1.0
aF1.0
aF0.48717948717948717
aF0.46153846153846156
aF0.0
aF0.5679241393527108
aF0.7647058823529411
aF0.8529014844804319
aF0.7280701754385965
aF0.5449048152295632
aF0.5322784810126582
aF0.46236054022313566
aF0.4429584599797366
aF0.7383116883116884
aF0.8074866310160428
aF0.7479838709677419
aF0.8623188405797102
aF0.7695560253699789
aF1.0
aF0.775
aF0.5236363636363637
aF0.6989898989898989
aF0.6031606672519754
aF0.8609625668449198
aF0.7082452431289641
aF0.8646153846153846
aF0.819047619047619
aF0.8791208791208791
aF0.6124634858812074
aF0.9340659340659341
aF0.48360881542699724
aF0.601123595505618
aF0.6491963661774982
aF0.8055555555555556
aF1.0
aF0.7948717948717948
aF0.7435897435897436
aF0.6492307692307693
aF0.8398268398268398
aF0.413716814159292
aF0.33689839572192515
aF0.6484567901234568
aF1.0
aF0.7017543859649122
aF0.8
aF0.5239759270044652
aF0.62468671679198
aF1.0
aF0.550580997949419
aF0.596045197740113
aF0.8611111111111112
aF0.6008281573498965
aF0.6338393187708257
aF0.3134975369458128
aF0.36350931677018633
aF0.7304439746300211
aF0.705050505050505
aF0.5798319327731093
aF0.500965250965251
aF0.6798029556650246
aF0.43102888672508927
aF0.6461538461538462
aF0.6068965517241379
aF0.4911072862880092
aF0.5289304500292227
aF0.5937921727395412
aF0.423963133640553
aF0.6937463471654004
aF0.8888888888888888
aF0.6615384615384615
aF0.7775689223057645
aF0.35762578616352203
aF0.8138528138528138
aF0.381280353200883
aF0.6956862745098039
aF0.9526315789473684
aF0.3814942035208244
aF0.3529522909777988
aF0.0
aF0.9238095238095239
aF1.0
aF0.8857142857142857
aF0.6798029556650246
aF0.47806841046277665
aF0.0
aF1.0
aF0.717948717948718
aF0.7727272727272727
aF1.0
aF1.0
aF0.0
aF0.0
aF0.8193033381712627
aF0.6447204968944099
aF0.8412698412698413
aF0.9011494252873563
aF0.7857142857142857
aF0.7569892473118279
aF0.5764452938365981
aF0.7148040638606676
aF0.6190299888930025
aF0.7747899159663866
aF1.0
aF0.5543654657578708
aF0.5082125603864734
aF0.6621848739495798
aF0.5568917668825162
aF0.6904761904761905
aF0.5833333333333334
aF0.6936936936936937
aF0.49673202614379086
aF0.6909090909090909
aF0.6777939042089985
aF1.0
aF0.8461538461538461
aF0.7555555555555555
aF0.5541125541125541
aF0.4424398625429553
aF0.8476190476190476
aF0.7663344407530454
aF0.6566666666666666
aF0.6495726495726496
aF0.7466666666666667
aF0.6538302277432713
aF0.7125683060109289
aF0.0
aF0.0
aF0.8857142857142857
aF0.0
aF1.0
aF0.8333333333333334
aF0.9272727272727272
aF0.0
aF0.8791208791208791
aF0.9777777777777777
aF0.6
aF1.0
aF0.8823529411764706
aF0.7824675324675324
aF0.7741935483870968
aF0.7837837837837838
aF0.7936507936507936
aF0.0
aF0.0
aF0.7749287749287749
aF0.5666507405637841
aF0.5131313131313131
aF0.5354239256678281
aF0.5333333333333333
aF0.4725274725274725
aF0.4644137224782386
aF0.45806451612903226
aF0.45345345345345345
aF0.524822695035461
aF0.0
aF0.47
aF0.42940243257535693
aF0.9242424242424242
aF0.9497354497354498
aF0.7372549019607844
aF0.8717948717948718
aF0.4131701631701632
aF0.8717948717948718
aF1.0
aF1.0
aF0.0
aF0.7045197740112994
aF0.8366013071895425
aF0.7378435517970402
aF0.7352941176470589
aF0.7896613190730838
aF0.4579699612403101
aF0.4753861003861004
aF0.9533333333333334
aF0.8042328042328042
aF0.7474509803921568
aF0.7320261437908496
aF0.698005698005698
aF0.5719135802469136
aF0.5317905563347358
aF0.8166666666666667
aF0.5307692307692308
aF0.4780915287244401
aF0.5642946317103621
aF0.613749434644957
aF0.8833333333333333
aF0.7549407114624506
aF0.922077922077922
aF0.7261794634597595
aF0.5375586854460094
aF0.7031039136302294
aF0.9
aF0.0
aF0.6
aF1.0
aF0.5969230769230769
aF0.7094017094017094
aF0.5888585099111415
aF0.0
aF1.0
aF0.6022453889334403
aF1.0
aF0.849802371541502
aF0.35575027382256297
aF0.6589113257243195
aF0.3865102639296188
aF0.4288753799392097
aF0.7364705882352941
aF0.6857142857142857
aF0.9545454545454546
aF0.0
aF0.5698924731182796
aF0.5886402753872634
aF0.6666666666666666
aF0.8444444444444444
aF0.873015873015873
aF0.9238095238095239
aF0.8453781512605042
aF0.811965811965812
aF0.7809388335704125
aF0.6643192488262911
aF0.925
aF0.33924928600571197
aF0.6108848574601999
aF0.9555555555555556
aF0.9340659340659341
aF0.5050420168067227
aF0.42587954680977935
aF0.3627329192546584
aF0.4499437570303712
aF1.0
aF0.6428571428571429
aF0.8333333333333334
aF0.7121212121212122
aF0.47973381730187536
aF0.7368421052631579
aF0.4803921568627451
aF0.6263157894736842
aF0.7361853832442068
aF0.6416666666666667
aF0.8022988505747126
aF0.6116794543904518
aF0.7142191142191142
aF0.5974025974025974
aF0.5347985347985348
aF0.6420068027210885
aF0.6486697965571205
aF0.5695317959468903
aF0.8161764705882353
aF0.7489177489177489
aF0.6044420941300899
aF0.5471243601324902
aF0.7197724039829303
aF0.6691992986557569
aF0.8650793650793651
aF0.7632850241545893
aF1.0
aF0.8333333333333334
aF0.5019490254872564
aF0.4175611850579648
aF1.0
aF0.7692307692307693
aF0.29410822071470544
aF0.2820078962210942
aF1.0
aF1.0
aF0.5931600547195622
aF0.5411255411255411
aF0.4692903225806452
aF0.5265577119509703
aF0.9090909090909091
aF0.8545454545454545
aF0.8809523809523809
aF0.5749256463051933
aF0.6545454545454545
aF0.30084343074364456
aF0.5169082125603864
aF0.8121693121693122
aF0.6731150793650794
aF1.0
aF0.7688734030197445
aF0.5244755244755245
aF0.667178699436764
aF0.39494634821737623
aF1.0
aF0.3971318257032543
aF0.5793226381461676
aF0.6875
aF0.4942528735632184
aF0.8333333333333334
aF0.6666666666666666
aF0.875
aF0.782608695652174
aF0.9722222222222222
aF0.9444444444444444
aF0.6353077816492451
aF0.7108843537414966
aF0.6074074074074074
aF0.6043360433604336
aF0.9333333333333333
aF1.0
aF0.7600422832980972
aF0.87
aF0.7718360071301248
aF0.7761904761904762
aF0.24174665913796348
aF0.28216171870994206
aF0.8363636363636363
aF0.683076923076923
aF0.584717607973422
aF0.6170212765957447
aF1.0
aF0.9047619047619048
aF0.6003526300323244
aF0.28392233856893545
aF0.7130124777183601
aF0.48951048951048953
aF0.6785714285714286
aF0.0
aF0.5633333333333334
aF0.6544117647058824
aF0.5333333333333333
aF0.7066666666666667
aaa(lp13
S'N51136.graphml'
p14
a(lp15
F0.8205128205128205
aF0.849802371541502
aF0.496551724137931
aF0.5274725274725275
aF0.637012987012987
aF0.45714285714285713
aF0.5930735930735931
aF0.6909090909090909
aF0.6888888888888889
aF1.0
aF0.6666666666666666
aF0.5925925925925926
aF0.4963768115942029
aF0.0
aF0.6225308641975309
aF0.8187134502923976
aF0.8199643493761141
aF0.7210884353741497
aF0.41497093023255816
aF0.5971171171171171
aF0.41154729797223055
aF0.5
aF0.7355102040816327
aF0.7880844645550528
aF0.6201298701298701
aF0.5648900933453779
aF0.8909090909090909
aF0.9111111111111111
aF0.8052631578947368
aF0.6974143955276031
aF0.5592340149302175
aF0.5863453815261044
aF0.8562091503267973
aF0.5230352303523035
aF0.7797979797979798
aF0.6580946814728229
aF0.8442028985507246
aF0.5168035847647499
aF0.8666666666666667
aF0.49604930467762326
aF0.5423623995052567
aF0.5441132189099669
aF1.0
aF1.0
aF1.0
aF0.55527950310559
aF0.5416666666666666
aF0.5367647058823529
aF0.4073355669194146
aF0.3754233843652622
aF0.4418483904465213
aF1.0
aF0.8095238095238095
aF0.8589743589743589
aF0.6253746253746254
aF0.8153846153846154
aF1.0
aF0.4927960927960928
aF0.6161347517730497
aF0.7492877492877493
aF0.6323604710701485
aF0.5980769230769231
aF0.389760348583878
aF0.2861724875267284
aF0.7752489331436699
aF0.8152709359605911
aF0.4307194078186445
aF0.3939055074084428
aF0.5143385753931545
aF0.5555555555555556
aF0.7309941520467836
aF0.7195402298850575
aF0.5281306715063521
aF0.5806451612903226
aF0.5799319727891157
aF0.4592760180995475
aF0.6150516150516151
aF0.8928571428571429
aF0.7
aF0.6316179192891521
aF0.33272741043702186
aF0.7697478991596639
aF0.35355969331872944
aF0.6839323467230444
aF1.0
aF0.3509838998211091
aF0.3870967741935484
aF1.0
aF0.7439516129032258
aF0.8095238095238095
aF1.0
aF0.7446153846153846
aF0.8382352941176471
aF1.0
aF0.0
aF0.6
aF0.6111111111111112
aF1.0
aF0.8571428571428571
aF0.0
aF0.0
aF0.697979797979798
aF0.6679454390451833
aF0.8300492610837439
aF0.8650793650793651
aF0.7445887445887446
aF0.7426470588235294
aF0.5592185592185592
aF0.6564102564102564
aF0.6140350877192983
aF0.7065602836879432
aF0.9010989010989011
aF0.4992982456140351
aF0.6047058823529412
aF0.5306553911205074
aF0.4889649923896499
aF0.5175510204081633
aF0.468013468013468
aF0.5727272727272728
aF0.4444444444444444
aF0.6785714285714286
aF0.7496443812233285
aF0.8366013071895425
aF0.828042328042328
aF0.5909090909090909
aF0.6705882352941176
aF0.3972965030855128
aF0.843915343915344
aF0.6530612244897959
aF0.7094474153297683
aF0.7736842105263158
aF0.7719298245614035
aF0.6369327073552425
aF0.5755248335893497
aF0.0
aF0.0
aF0.8263157894736842
aF0.9084967320261438
aF0.8
aF0.780952380952381
aF1.0
aF0.9272727272727272
aF0.0
aF1.0
aF1.0
aF0.7954545454545454
aF0.868421052631579
aF0.6921768707482994
aF0.7202380952380952
aF0.7935483870967742
aF0.6649048625792812
aF0.8333333333333334
aF0.9333333333333333
aF0.8846153846153846
aF0.7167019027484144
aF0.5910931174089069
aF0.6097560975609756
aF0.5333333333333333
aF0.5578947368421052
aF0.6862745098039216
aF0.6491228070175439
aF0.5355587808417998
aF0.3280093951849677
aF0.0
aF0.48704389212057114
aF0.5205128205128206
aF0.0
aF1.0
aF0.6693262411347518
aF0.7156448202959831
aF0.3929798196650923
aF0.6124748490945674
aF0.803030303030303
aF0.8365591397849462
aF0.8766666666666667
aF0.7732732732732732
aF0.7308377896613191
aF0.8522167487684729
aF0.728735632183908
aF0.8484848484848485
aF0.5258771929824562
aF0.6075899843505478
aF0.9083333333333333
aF0.9636363636363636
aF0.7464008859357697
aF0.6666666666666666
aF0.5691699604743083
aF0.5864661654135338
aF0.5826617826617827
aF0.7682539682539683
aF0.4221153846153846
aF0.584873949579832
aF0.5762575452716298
aF0.5391782130912566
aF0.6447552447552447
aF0.6673717609730302
aF0.7177589852008457
aF0.655359565807327
aF0.5993657505285412
aF0.6151711378353376
aF0.6
aF1.0
aF1.0
aF1.0
aF0.68
aF0.7333333333333333
aF0.6438228438228438
aF0.0
aF0.9696969696969697
aF0.5423065341764529
aF1.0
aF0.85
aF0.3728930168558652
aF0.5800764031736703
aF0.44606451612903225
aF0.3877697841726619
aF0.7970401691331924
aF0.6128448665762098
aF0.0
aF1.0
aF0.5844842785777256
aF0.5436388508891928
aF0.9722222222222222
aF1.0
aF0.8245614035087719
aF0.7619047619047619
aF0.8
aF0.7721774193548387
aF0.8011363636363636
aF0.582731889869019
aF0.9473684210526315
aF0.40881226053639846
aF0.5557894736842105
aF0.7777777777777778
aF0.825
aF0.5402298850574713
aF0.48772204806687564
aF0.44270967741935485
aF0.42098986285032797
aF1.0
aF0.8333333333333334
aF0.616600790513834
aF0.5161290322580645
aF0.6956521739130435
aF0.5494505494505495
aF0.5760869565217391
aF0.4533333333333333
aF0.8888888888888888
aF0.8214285714285714
aF0.6581196581196581
aF0.5155701754385965
aF0.7414634146341463
aF0.6541062801932367
aF0.5038922785609089
aF0.6229148375768218
aF0.6546448087431694
aF0.7523809523809524
aF0.6153846153846154
aF0.6968641114982579
aF0.55
aF0.5906306306306306
aF0.8221343873517787
aF0.7761904761904762
aF0.7783251231527094
aF0.7695590327169275
aF0.0
aF1.0
aF0.525654094461434
aF0.5445665445665445
aF0.7391304347826086
aF0.782608695652174
aF0.275006888950124
aF0.24445382486750153
aF1.0
aF0.8666666666666667
aF0.5219435736677116
aF0.5055879899916598
aF0.41098064106632815
aF0.4258373205741627
aF1.0
aF0.9
aF0.841897233201581
aF0.5929892891918208
aF0.9333333333333333
aF0.28664765977666906
aF0.7058823529411765
aF0.6423751686909581
aF0.6160108548168249
aF0.791025641025641
aF0.5258771929824562
aF0.4769736842105263
aF0.8
aF0.4121004566210046
aF1.0
aF0.38114325548971767
aF0.6070588235294118
aF0.7132352941176471
aF0.9722222222222222
aF0.7804232804232805
aF0.5818181818181818
aF0.7253968253968254
aF1.0
aF1.0
aF0.8514492753623188
aF0.8666666666666667
aF0.6181914331041777
aF0.6452367036820573
aF0.7018849206349206
aF0.8791208791208791
aF0.8368421052631579
aF0.7342342342342343
aF0.86
aF0.8215384615384616
aF0.7448275862068966
aF0.28609428106989804
aF0.28688442211055276
aF0.7192982456140351
aF0.6140350877192983
aF0.574025974025974
aF0.5460992907801419
aF0.8529411764705882
aF0.8476190476190476
aF0.5956756756756757
aF0.3338509316770186
aF0.6881720430107527
aF0.566530612244898
aF1.0
aF0.0
aF0.5514705882352942
aF0.8
aF0.8333333333333334
aF0.6477832512315271
aaa(lp16
S'N51201.graphml'
p17
a(lp18
F0.7072463768115942
aF0.828042328042328
aF0.3889108910891089
aF0.5268817204301075
aF0.5911730545876888
aF0.6396825396825396
aF0.5107692307692308
aF0.5769230769230769
aF0.6608187134502924
aF0.7333333333333333
aF1.0
aF0.49333333333333335
aF0.4431082331174838
aF1.0
aF0.5485436893203883
aF0.6666666666666666
aF0.7696969696969697
aF0.7312925170068028
aF0.5817901234567902
aF0.47165532879818595
aF0.4352517985611511
aF0.37105203362872075
aF0.6095791001451378
aF0.6875
aF0.720211161387632
aF0.5374056280027454
aF0.8301587301587302
aF0.9166666666666666
aF0.6647342995169082
aF0.6944847605224964
aF0.6745311554748942
aF0.5250505050505051
aF0.7833333333333333
aF0.6216049382716049
aF0.7591397849462366
aF0.7566137566137566
aF0.9454545454545454
aF0.5936431989063568
aF0.9607843137254902
aF0.46905393457117595
aF0.6094627105052125
aF0.6507936507936508
aF0.7818181818181819
aF0.8666666666666667
aF0.5882352941176471
aF0.6324110671936759
aF0.5990990990990991
aF0.7712418300653595
aF0.3738095238095238
aF0.42690883442073707
aF0.5945945945945946
aF0.9333333333333333
aF0.7916666666666666
aF0.825
aF0.4748579844308858
aF0.598989898989899
aF0.7613636363636364
aF0.5613107822410148
aF0.5602322206095791
aF0.6888888888888889
aF0.5721153846153846
aF0.6209737827715356
aF0.29062833469336513
aF0.33815781121056304
aF0.8897058823529411
aF0.7652916073968705
aF0.5062271062271062
aF0.41079365079365077
aF0.631578947368421
aF0.6438746438746439
aF0.8131868131868132
aF0.8970588235294118
aF0.5649717514124294
aF0.5879781420765028
aF0.5652173913043478
aF0.5441558441558442
aF0.7793650793650794
aF0.9111111111111111
aF0.8636363636363636
aF0.7006493506493506
aF0.38486627527723416
aF0.5816326530612245
aF0.34972120223038217
aF0.8781609195402299
aF0.9157894736842105
aF0.3604559748427673
aF0.31190010250675615
aF0.9333333333333333
aF0.8888888888888888
aF0.9047619047619048
aF0.8142292490118577
aF0.625
aF0.5891062929666843
aF0.0
aF0.0
aF0.7047619047619048
aF0.7916666666666666
aF1.0
aF0.7142857142857143
aF0.0
aF1.0
aF0.6376811594202898
aF0.5937766410912191
aF0.6512402813772676
aF0.7305084745762712
aF0.7666666666666667
aF1.0
aF0.6068399452804377
aF0.5191125367548783
aF0.49983010533469246
aF0.8317073170731707
aF1.0
aF0.568922305764411
aF0.7368421052631579
aF0.5455696202531646
aF0.6993464052287581
aF0.6699857752489331
aF0.825
aF0.6179401993355482
aF0.7777777777777778
aF0.48412698412698413
aF0.6037414965986394
aF0.8104575163398693
aF0.7631578947368421
aF0.6857142857142857
aF0.6190476190476191
aF0.47751983543931825
aF0.7582417582417582
aF0.5720375106564365
aF0.48717948717948717
aF0.7736842105263158
aF0.7578947368421053
aF0.5202470830473576
aF0.6848228450555262
aF0.0
aF0.0
aF0.9523809523809523
aF0.6666666666666666
aF0.0
aF1.0
aF0.8928571428571429
aF0.8888888888888888
aF0.0
aF1.0
aF0.9090909090909091
aF0.8888888888888888
aF0.7487684729064039
aF0.6562641338760742
aF0.7242524916943521
aF0.7629233511586453
aF0.7989203778677463
aF0.0
aF0.7142857142857143
aF0.7857142857142857
aF0.6228281208233093
aF0.5341074020319303
aF0.75
aF0.5636363636363636
aF0.5454545454545454
aF0.6842105263157895
aF0.5688405797101449
aF0.466403162055336
aF0.462406015037594
aF0.0
aF0.5087719298245614
aF0.5168650793650794
aF0.8333333333333334
aF0.9848484848484849
aF0.7103174603174603
aF0.775
aF0.4175407052242533
aF0.9333333333333333
aF0.9523809523809523
aF0.7463768115942029
aF0.8
aF0.6921182266009852
aF0.7188405797101449
aF0.7104377104377104
aF0.7586206896551724
aF0.7644927536231884
aF0.5533352923890684
aF0.546758462421113
aF0.7941176470588235
aF0.8888888888888888
aF0.6852502194907814
aF0.7647058823529411
aF0.8214285714285714
aF0.540807560137457
aF0.5549371263656978
aF0.7764705882352941
aF0.5287356321839081
aF0.5021141649048626
aF0.4196793808734107
aF0.6537935748462064
aF0.7768115942028986
aF0.6616541353383458
aF0.9642857142857143
aF0.717948717948718
aF0.5538461538461539
aF0.5361344537815126
aF1.0
aF0.8333333333333334
aF0.8333333333333334
aF0.5
aF0.8461538461538461
aF0.6764705882352942
aF0.5370051635111877
aF0.0
aF0.8947368421052632
aF0.6363924050632911
aF0.0
aF0.9285714285714286
aF0.27836150449215774
aF0.6668129938542581
aF0.3639937106918239
aF0.48494288681204567
aF0.6691331923890064
aF0.7404040404040404
aF0.8235294117647058
aF1.0
aF0.5834767641996558
aF0.6305536568694463
aF1.0
aF0.0
aF0.8235294117647058
aF0.7724867724867724
aF0.7183499288762447
aF0.7555555555555555
aF0.8746438746438746
aF0.632640770852153
aF0.657312925170068
aF0.3769597818677573
aF0.6426682339112548
aF0.8183908045977012
aF0.7269230769230769
aF0.48168938786420745
aF0.39166899636566954
aF0.41723915843709747
aF0.4268486194858775
aF0.5934065934065934
aF1.0
aF0.6292682926829268
aF0.8
aF0.5982905982905983
aF0.4823529411764706
aF0.6245059288537549
aF0.5608465608465608
aF0.6102941176470589
aF0.5906432748538012
aF0.732620320855615
aF0.533135875601629
aF0.6493918561607614
aF0.6693121693121693
aF0.6754098360655738
aF0.7169398907103826
aF0.6571929824561403
aF0.6743197278911565
aF0.7629233511586453
aF0.6069254185692542
aF0.677555958862674
aF0.4709480122324159
aF0.6632747456059205
aF0.759469696969697
aF0.5893388240677191
aF0.6480519480519481
aF1.0
aF1.0
aF0.54570166496772
aF0.43319581085369724
aF0.9285714285714286
aF0.6738461538461539
aF0.3400383141762452
aF0.3181974544203646
aF0.9333333333333333
aF0.9285714285714286
aF0.5363295880149813
aF0.48442706069824715
aF0.43793305930710513
aF0.45745288406624784
aF1.0
aF0.875
aF0.8404558404558404
aF0.5223665223665224
aF0.8571428571428571
aF0.3217661063415338
aF0.7142857142857143
aF0.7378151260504202
aF0.7793650793650794
aF0.9523809523809523
aF0.6886792452830188
aF0.414779226721574
aF0.7560483870967742
aF0.40370370370370373
aF0.9047619047619048
aF0.4027373068432671
aF0.9777777777777777
aF0.9636363636363636
aF0.8611111111111112
aF0.7585825027685493
aF0.5974025974025974
aF0.7580645161290323
aF0.6888888888888889
aF0.8333333333333334
aF0.7584204413472706
aF0.6992753623188406
aF0.7575757575757576
aF0.6197778952934955
aF0.5683219733852646
aF0.8496732026143791
aF0.7486772486772487
aF0.7714285714285715
aF0.6857142857142857
aF0.72
aF0.6033834586466166
aF0.2932496075353218
aF0.3461300309597523
aF0.8362573099415205
aF0.7522281639928698
aF0.46153846153846156
aF0.5311554748941318
aF0.849802371541502
aF0.8916666666666667
aF0.6635006784260515
aF0.33393130024583084
aF0.6161616161616161
aF0.4980899206582427
aF0.7944664031620553
aF0.0
aF0.5158730158730159
aF0.7727272727272727
aF0.8444444444444444
aF0.5681159420289855
aaa(lp19
S'N51234.graphml'
p20
a(lp21
F0.7698412698412699
aF0.6313497822931785
aF0.5045045045045045
aF0.46616541353383456
aF0.7689393939393939
aF0.6190476190476191
aF0.4867283950617284
aF0.8
aF0.6258823529411764
aF0.8333333333333334
aF1.0
aF0.5079600148093298
aF0.5439024390243903
aF0.0
aF0.5141752577319587
aF0.7372549019607844
aF0.671247357293869
aF0.7205128205128205
aF0.5903614457831325
aF0.5313531353135313
aF0.3982628138974888
aF0.44622920938710414
aF0.8333333333333334
aF0.6847826086956522
aF0.8620689655172413
aF0.6957671957671958
aF0.7701149425287356
aF0.9
aF0.5995859213250517
aF0.597567424643046
aF0.5855181023720349
aF0.5995192307692307
aF0.6872278664731495
aF0.674812030075188
aF0.6756756756756757
aF0.6335268505079826
aF0.7832512315270936
aF0.5936915263298583
aF0.8714285714285714
aF0.4726109556177529
aF0.5739235170129479
aF0.3983785294939894
aF1.0
aF1.0
aF0.7402597402597403
aF0.7555555555555555
aF0.6790780141843972
aF0.6931818181818182
aF0.4051094890510949
aF0.341097612065354
aF0.676923076923077
aF0.8131868131868132
aF0.6666666666666666
aF0.59
aF0.4898472596585804
aF0.8666666666666667
aF0.0
aF0.5945945945945946
aF0.6108108108108108
aF0.87
aF0.5786071113723186
aF0.5753501400560224
aF0.3721041318366372
aF0.33749224084419616
aF0.8210526315789474
aF1.0
aF0.4937694704049844
aF0.4803921568627451
aF0.592929292929293
aF0.5154929577464789
aF0.7060975609756097
aF0.8260869565217391
aF0.4975438596491228
aF0.5723905723905723
aF0.5442670537010159
aF0.6110304789550073
aF0.4956797742902486
aF0.7727272727272727
aF0.8315789473684211
aF0.4685002032244953
aF0.38238993710691827
aF0.7938461538461539
aF0.38137472283813745
aF0.7585034013605442
aF0.0
aF0.320012277470841
aF0.31076212991106605
aF0.0
aF0.7810283687943262
aF0.6782608695652174
aF0.7517241379310344
aF0.6230440967283073
aF0.6844919786096256
aF0.0
aF0.0
aF0.6181818181818182
aF0.6078431372549019
aF0.7912087912087912
aF1.0
aF0.0
aF0.0
aF0.5586867305061559
aF0.5666438824333562
aF0.5922761449077238
aF0.7444897959183674
aF0.8298850574712644
aF0.7174833635813672
aF0.5915966386554622
aF0.6857142857142857
aF0.624390243902439
aF0.5163963963963965
aF0.0
aF0.5571205007824727
aF0.5597735597735598
aF0.5549533273110508
aF0.5977891156462585
aF0.6363636363636364
aF0.48432852894074585
aF0.7037037037037037
aF0.7333333333333333
aF0.8222222222222222
aF0.689900426742532
aF0.9555555555555556
aF0.7536231884057971
aF0.8888888888888888
aF0.6373626373626373
aF0.407043407043407
aF0.7263157894736842
aF0.7219512195121951
aF0.7944664031620553
aF0.6761904761904762
aF0.7753623188405797
aF0.5113570180547466
aF0.5148327372185988
aF0.9242424242424242
aF0.7832980972515856
aF0.8787878787878788
aF0.7293447293447294
aF0.7619047619047619
aF0.7036199095022625
aF0.9111111111111111
aF1.0
aF0.8270944741532977
aF0.9047619047619048
aF1.0
aF0.7647058823529411
aF0.8078817733990148
aF0.6465306122448979
aF0.613849765258216
aF0.6660617059891107
aF0.7116935483870968
aF0.9333333333333333
aF0.7521367521367521
aF0.9166666666666666
aF0.5647911338448423
aF0.4510272336359293
aF0.43502613890963404
aF0.5568917668825162
aF0.8333333333333334
aF0.5748987854251012
aF0.49966329966329964
aF0.47751983543931825
aF0.4576905095839177
aF1.0
aF0.5034628124059018
aF0.7266009852216748
aF1.0
aF0.8444444444444444
aF0.6311352002408913
aF0.6666666666666666
aF0.3683954054994779
aF0.8369230769230769
aF0.0
aF0.8416666666666667
aF0.8362573099415205
aF0.7563025210084033
aF0.7536585365853659
aF0.7126984126984127
aF0.8952380952380953
aF0.7142857142857143
aF0.5393057110862262
aF0.515959595959596
aF0.9722222222222222
aF0.70995670995671
aF0.7130325814536341
aF0.7111111111111111
aF0.6588235294117647
aF0.6116152450090744
aF0.5024271844660194
aF0.65149359886202
aF0.4097777777777778
aF0.48759920634920634
aF0.5557422969187675
aF0.5438202247191011
aF0.6042206590151795
aF0.5522433002107798
aF0.6610169491525424
aF0.7293844367015099
aF0.661319073083779
aF0.5243460764587525
aF1.0
aF0.8928571428571429
aF0.7619047619047619
aF0.0
aF0.5876623376623377
aF0.5412311265969802
aF0.5768641470888662
aF1.0
aF0.7333333333333333
aF0.5490909090909091
aF0.0
aF0.6633064516129032
aF0.3495344506517691
aF0.5098133848133848
aF0.37853231106243157
aF0.42863752024057367
aF0.5250836120401338
aF0.5850931677018634
aF0.6471380471380471
aF0.6151260504201681
aF0.5666933974873029
aF0.5343434343434343
aF0.8431372549019608
aF0.9444444444444444
aF0.9215686274509803
aF0.9064327485380117
aF0.8484848484848485
aF0.8251231527093597
aF0.6666666666666666
aF0.7646464646464647
aF0.726063829787234
aF0.3766272632051474
aF0.47732779508480444
aF0.8681318681318682
aF0.7432432432432432
aF0.5756302521008403
aF0.42644628099173554
aF0.36350609027943637
aF0.4429677419354839
aF0.8589743589743589
aF0.8666666666666667
aF0.7121212121212122
aF0.7272727272727273
aF0.5364705882352941
aF0.5363636363636364
aF0.5402298850574713
aF0.552439024390244
aF0.7
aF0.8308823529411765
aF0.9722222222222222
aF0.5137254901960784
aF0.7681365576102418
aF0.6688172043010753
aF0.631578947368421
aF0.6902356902356902
aF0.6457912457912458
aF0.7268817204301076
aF0.6739495798319328
aF0.7139784946236559
aF0.5209302325581395
aF0.5914669783752192
aF0.8023715415019763
aF0.8846153846153846
aF0.7111111111111111
aF0.7351778656126482
aF1.0
aF1.0
aF0.5457099080694586
aF0.5273408239700375
aF0.8333333333333334
aF0.847953216374269
aF0.3306311175163634
aF0.28151463296915447
aF0.7167487684729064
aF0.8602941176470589
aF0.4980716253443526
aF0.5240156668728098
aF0.5517171717171717
aF0.5131370128725092
aF1.0
aF0.8131868131868132
aF0.8520499108734403
aF0.5688736681887366
aF0.75
aF0.30300734075301916
aF0.5724275724275725
aF0.6365914786967418
aF0.6279491833030852
aF0.6240219092331768
aF0.7037037037037037
aF0.5324153757888698
aF0.7037037037037037
aF0.4279312920089619
aF0.0
aF0.36426929392446633
aF0.7842105263157895
aF0.62
aF0.6553030303030303
aF0.6932203389830508
aF0.6410256410256411
aF0.9333333333333333
aF0.7424242424242424
aF0.7333333333333333
aF0.6193548387096774
aF0.48329979879275653
aF0.7948717948717948
aF0.6237288135593221
aF0.5051186017478152
aF0.6524216524216524
aF0.714795008912656
aF0.6733870967741935
aF0.8260869565217391
aF0.6951219512195121
aF0.9714285714285714
aF0.29792663476874004
aF0.3133491937615649
aF0.7298387096774194
aF0.7116935483870968
aF0.5054871220604703
aF0.491625036732295
aF1.0
aF1.0
aF0.6710992907801419
aF0.32032056341448606
aF0.5126315789473684
aF0.5491525423728814
aF0.6282051282051282
aF1.0
aF0.5946969696969697
aF0.6178861788617886
aF0.8055555555555556
aF0.6734143049932524
aaa(lp22
S'N51241.graphml'
p23
a(lp24
F0.5333333333333333
aF0.9111111111111111
aF0.37537537537537535
aF0.42081949058693247
aF0.5
aF0.4772727272727273
aF0.4202020202020202
aF0.6947368421052632
aF0.5731225296442688
aF0.0
aF0.0
aF0.40540540540540543
aF0.5815126050420169
aF0.0
aF0.5195121951219512
aF0.7333333333333333
aF1.0
aF0.7631578947368421
aF0.0
aF0.0
aF0.5110544217687075
aF0.625
aF0.0
aF0.8888888888888888
aF0.6111111111111112
aF0.6794871794871795
aF1.0
aF0.8894736842105263
aF0.29965156794425085
aF0.42234848484848486
aF0.5573122529644269
aF0.6410256410256411
aF0.7307692307692307
aF0.5446153846153846
aF0.6909090909090909
aF0.6926406926406926
aF0.0
aF0.5411255411255411
aF0.0
aF0.5335968379446641
aF0.0
aF0.5238095238095238
aF1.0
aF0.6666666666666666
aF0.5714285714285714
aF0.6545454545454545
aF0.9111111111111111
aF1.0
aF0.4594594594594595
aF0.2701298701298701
aF0.5634920634920635
aF0.0
aF0.6666666666666666
aF0.8333333333333334
aF0.49306197964847365
aF0.9523809523809523
aF1.0
aF0.6157894736842106
aF0.6944444444444444
aF0.8222222222222222
aF0.8070175438596491
aF0.8888888888888888
aF0.44463276836158194
aF0.4989247311827957
aF0.9285714285714286
aF0.0
aF0.5508021390374331
aF0.49846153846153846
aF0.6444444444444445
aF0.9
aF1.0
aF0.0
aF0.875
aF0.5789473684210527
aF0.45054945054945056
aF0.2857142857142857
aF0.6287339971550497
aF1.0
aF0.8380952380952381
aF0.8222222222222222
aF0.45390070921985815
aF0.5641025641025641
aF0.6724137931034483
aF0.8
aF1.0
aF0.32801161103047893
aF0.39766899766899766
aF0.0
aF0.8666666666666667
aF1.0
aF0.6794354838709677
aF0.7316017316017316
aF0.9333333333333333
aF0.0
aF0.8104575163398693
aF0.6666666666666666
aF0.8
aF0.6666666666666666
aF1.0
aF0.0
aF0.0
aF1.0
aF0.0
aF0.0
aF1.0
aF1.0
aF0.9722222222222222
aF0.0
aF0.0
aF0.696969696969697
aF0.7142857142857143
aF1.0
aF0.9
aF0.7333333333333333
aF0.6727272727272727
aF0.5012820512820513
aF0.7142857142857143
aF0.3877473363774734
aF0.8571428571428571
aF0.3333333333333333
aF0.0
aF0.4084084084084084
aF0.0
aF1.0
aF1.0
aF0.0
aF0.3724696356275304
aF1.0
aF0.4782608695652174
aF1.0
aF0.6666666666666666
aF0.0
aF0.7285714285714285
aF0.7894736842105263
aF1.0
aF1.0
aF0.7631578947368421
aF0.9142857142857143
aF0.0
aF1.0
aF0.0
aF0.9333333333333333
aF0.5
aF0.0
aF0.0
aF0.0
aF0.0
aF0.9142857142857143
aF0.7264957264957265
aF1.0
aF1.0
aF0.0
aF0.0
aF0.0
aF1.0
aF0.6363636363636364
aF0.42857142857142855
aF0.8333333333333334
aF0.6666666666666666
aF0.14285714285714285
aF1.0
aF0.4583333333333333
aF0.2857142857142857
aF0.6952380952380952
aF0.5277777777777778
aF0.18181818181818182
aF0.0
aF0.9
aF0.7426470588235294
aF0.0
aF0.30655737704918035
aF0.8276923076923077
aF0.6038461538461538
aF0.0
aF0.9047619047619048
aF0.0
aF0.0
aF0.0
aF0.0
aF0.0
aF0.37564102564102564
aF0.38738738738738737
aF0.8333333333333334
aF0.8
aF0.8666666666666667
aF0.625
aF0.43915343915343913
aF0.7316017316017316
aF0.4819976771196283
aF0.6796536796536796
aF0.46680642907058
aF0.5256410256410257
aF0.4269005847953216
aF0.441025641025641
aF1.0
aF0.8055555555555556
aF0.0
aF0.0
aF0.9272727272727272
aF0.9696969696969697
aF1.0
aF0.6666666666666666
aF1.0
aF0.0
aF0.5
aF0.9333333333333333
aF0.7619047619047619
aF1.0
aF0.9333333333333333
aF0.6545454545454545
aF0.8095238095238095
aF0.8928571428571429
aF0.402020202020202
aF0.625
aF0.7582417582417582
aF0.4073469387755102
aF0.575
aF0.8333333333333334
aF0.0
aF0.0
aF0.71
aF0.8857142857142857
aF1.0
aF0.0
aF1.0
aF0.8666666666666667
aF1.0
aF0.8222222222222222
aF0.0
aF0.9047619047619048
aF1.0
aF0.27034428794992177
aF0.5615942028985508
aF0.0
aF0.7142857142857143
aF0.46509803921568627
aF0.5483870967741935
aF0.3830005120327701
aF0.24906646751306946
aF0.0
aF1.0
aF0.6190476190476191
aF0.3976982097186701
aF0.6761904761904762
aF0.6966666666666667
aF0.5
aF0.48287910552061497
aF0.6
aF0.50472334682861
aF0.0
aF0.4936507936507937
aF0.0
aF0.5886699507389163
aF0.4444444444444444
aF0.5380952380952381
aF0.8
aF0.7282608695652174
aF0.6363636363636364
aF0.0
aF0.6263736263736264
aF0.5661764705882353
aF0.6785714285714286
aF0.6926406926406926
aF0.8210526315789474
aF1.0
aF1.0
aF0.0
aF0.46975806451612906
aF0.4314516129032258
aF0.0
aF0.9333333333333333
aF0.20507846940574856
aF0.15620309050772627
aF0.0
aF1.0
aF0.5
aF0.40860215053763443
aF0.3891843971631206
aF0.5014245014245015
aF0.0
aF0.9
aF1.0
aF0.6078431372549019
aF1.0
aF0.2982635342185904
aF0.42609351432880843
aF0.8901098901098901
aF0.4114942528735632
aF0.8952380952380953
aF0.6442687747035574
aF0.7338709677419355
aF1.0
aF0.35737704918032787
aF1.0
aF0.5475609756097561
aF0.8285714285714286
aF0.0
aF0.6764705882352942
aF0.0
aF0.5714285714285714
aF0.0
aF0.7333333333333333
aF0.8602941176470589
aF0.0
aF1.0
aF0.6666666666666666
aF0.7046153846153846
aF0.6047430830039525
aF0.780952380952381
aF1.0
aF0.8
aF0.7368421052631579
aF0.9166666666666666
aF0.8014705882352942
aF0.21949362269179518
aF0.1363389092887257
aF0.0
aF0.7189542483660131
aF0.5454545454545454
aF0.5882352941176471
aF0.0
aF0.0
aF0.6444444444444445
aF0.33060109289617484
aF0.8
aF0.5666666666666667
aF0.6043956043956044
aF0.0
aF0.5494505494505495
aF0.6666666666666666
aF0.6666666666666666
aF0.7818181818181819
aaa(lp25
S'N51252.graphml'
p26
a(lp27
F0.8011695906432749
aF0.469187675070028
aF0.43727598566308246
aF0.41290726817042606
aF0.6285714285714286
aF0.6203208556149733
aF0.6926406926406926
aF0.6426829268292683
aF0.9047619047619048
aF1.0
aF1.0
aF0.380508639099204
aF0.6126984126984127
aF0.0
aF0.5160567587752054
aF0.5127222982216142
aF0.6350961538461538
aF0.5810526315789474
aF0.5296863330843914
aF0.6097560975609756
aF0.3977201257861635
aF0.4152759381898455
aF0.8166666666666667
aF0.9047619047619048
aF0.6396825396825396
aF0.6448979591836734
aF0.8627450980392157
aF0.7462462462462462
aF0.7523809523809524
aF0.565978198508319
aF0.6279155868196964
aF0.48771929824561405
aF0.7363265306122448
aF0.5498245614035088
aF0.838655462184874
aF0.7083926031294452
aF1.0
aF0.6527293844367015
aF0.7564102564102564
aF0.44901587301587303
aF0.49613899613899615
aF0.5721840296139609
aF0.6363636363636364
aF0.6666666666666666
aF0.5681159420289855
aF0.6888888888888889
aF0.6646153846153846
aF0.7489177489177489
aF0.41448313985627416
aF0.375123031496063
aF0.4474920634920635
aF1.0
aF0.7833333333333333
aF0.8055555555555556
aF0.5625
aF0.9333333333333333
aF0.0
aF0.5906432748538012
aF0.6952380952380952
aF0.766798418972332
aF0.7566666666666667
aF0.5154639175257731
aF0.3675266597867217
aF0.34913281064385837
aF0.8666666666666667
aF0.6666666666666666
aF0.46554993678887485
aF0.4830841856805665
aF0.5118012422360249
aF0.5077477477477478
aF0.6329849012775842
aF0.6378809869375908
aF0.5597402597402598
aF0.463003663003663
aF0.5008605851979346
aF0.47744845360824745
aF0.6164912280701754
aF0.9333333333333333
aF0.7109634551495017
aF0.5731481481481482
aF0.34096351991088836
aF0.5966329966329966
aF0.35629220380601595
aF0.7492063492063492
aF0.9848484848484849
aF0.34270639354438237
aF0.41904761904761906
aF0.0
aF0.6536936936936937
aF0.5554621848739496
aF0.5794205794205795
aF0.6620689655172414
aF0.7943548387096774
aF0.0
aF0.9
aF0.5777777777777777
aF0.6210826210826211
aF1.0
aF0.9333333333333333
aF0.0
aF0.0
aF0.6403765011359948
aF0.5995006242197254
aF0.693683409436834
aF0.7474358974358974
aF0.8168067226890756
aF0.6153846153846154
aF0.6229376257545272
aF0.6151515151515151
aF0.5657675657675658
aF0.6713725490196079
aF0.0
aF0.5935574229691877
aF0.5382395382395382
aF0.7712418300653595
aF0.5440993788819876
aF0.6428571428571429
aF0.6175616835994194
aF0.46924603174603174
aF0.7032967032967034
aF0.6043956043956044
aF0.692929292929293
aF0.7701149425287356
aF0.7905138339920948
aF0.671957671957672
aF0.8571428571428571
aF0.38166494668042655
aF0.9393939393939394
aF0.6428904428904428
aF0.7894736842105263
aF0.7727272727272727
aF0.6817761332099908
aF0.6067125645438899
aF0.5585858585858586
aF0.9047619047619048
aF0.9777777777777777
aF0.8669950738916257
aF0.8809523809523809
aF0.6705314009661836
aF0.6668429402432575
aF1.0
aF0.9142857142857143
aF0.8857142857142857
aF0.9642857142857143
aF0.8571428571428571
aF0.8137931034482758
aF0.9454545454545454
aF0.5687079910380881
aF0.6071113723185425
aF0.8063241106719368
aF0.7942942942942943
aF0.6666666666666666
aF0.8846153846153846
aF0.8492063492063492
aF0.5606019151846785
aF0.639080459770115
aF0.5734265734265734
aF0.75
aF0.6260869565217392
aF0.6584615384615384
aF0.5935828877005348
aF0.4390451832907076
aF0.48821779913063373
aF0.8666666666666667
aF0.6248185776487664
aF0.5230263157894737
aF0.9191176470588235
aF1.0
aF0.6852836879432624
aF1.0
aF0.42022371364653244
aF0.7813765182186235
aF1.0
aF0.8791208791208791
aF0.8484848484848485
aF0.7841269841269841
aF0.7446808510638298
aF0.6885964912280702
aF0.8169934640522876
aF1.0
aF0.5488546049555867
aF0.5194805194805194
aF0.8974358974358975
aF0.7410256410256411
aF0.7454545454545455
aF0.7193675889328063
aF0.5270911360799001
aF0.599177196591243
aF0.5936915263298583
aF0.6913265306122449
aF0.43972044263249854
aF0.549266247379455
aF0.5775862068965517
aF0.6427249166975194
aF0.7051282051282052
aF0.7537254901960785
aF0.6633444075304541
aF0.7120708748615725
aF0.5495798319327732
aF0.6650980392156862
aF0.9111111111111111
aF0.8333333333333334
aF0.8
aF0.8
aF0.6014492753623188
aF0.7647058823529411
aF0.6217303822937625
aF0.0
aF0.7391304347826086
aF0.5614197530864198
aF0.9285714285714286
aF0.7
aF0.35032024505708714
aF0.6038961038961039
aF0.4811376363100501
aF0.3608051135590915
aF0.5630936227951153
aF0.5959104186952289
aF0.6842105263157895
aF0.6989247311827957
aF0.5137614678899083
aF0.5736115192477226
aF0.8333333333333334
aF0.9
aF0.7549857549857549
aF0.8888888888888888
aF0.7166666666666667
aF0.7636363636363637
aF0.9281045751633987
aF0.6151351351351352
aF0.6826417299824664
aF0.39750445632798576
aF0.5375757575757576
aF0.6682539682539682
aF0.8428030303030303
aF0.5567010309278351
aF0.4784971277751902
aF0.4031380373662253
aF0.44795767716535434
aF1.0
aF1.0
aF0.5226244343891403
aF0.7279411764705882
aF0.5761904761904761
aF0.5037878787878788
aF0.49390243902439024
aF0.5017421602787456
aF0.7792207792207793
aF0.5320197044334976
aF0.9285714285714286
aF0.4293569745258669
aF0.5833333333333334
aF0.6634032634032634
aF0.5240948813982522
aF0.6716003700277521
aF0.5848101265822785
aF0.8602941176470589
aF0.674645390070922
aF0.6938775510204082
aF0.6246799795186891
aF0.47796863330843914
aF0.8947368421052632
aF0.7174603174603175
aF0.8115942028985508
aF0.638095238095238
aF1.0
aF1.0
aF0.5113890963405526
aF0.48686298712749077
aF0.6146304675716441
aF0.9264705882352942
aF0.2692307692307692
aF0.36225106828992987
aF0.9005847953216374
aF0.8351648351648352
aF0.513022113022113
aF0.41961600740226696
aF0.48625551915681525
aF0.5250341997264022
aF0.8222222222222222
aF1.0
aF0.6830508474576271
aF0.6474025974025974
aF0.8363636363636363
aF0.32760002136638
aF0.9047619047619048
aF0.6053872053872054
aF0.6528735632183909
aF0.7555555555555555
aF0.6681749622926093
aF0.7293233082706767
aF0.725609756097561
aF0.5400271370420624
aF0.0
aF0.34882491186839015
aF0.5987103174603174
aF0.9722222222222222
aF0.6892307692307692
aF0.7074468085106383
aF0.7948717948717948
aF0.9242424242424242
aF0.7222222222222222
aF0.9102564102564102
aF0.7300150829562594
aF0.6240437158469946
aF0.6502816180235536
aF0.6877076411960132
aF0.5663474692202463
aF0.7610837438423645
aF0.8461538461538461
aF0.6356275303643725
aF0.6798418972332015
aF0.7786561264822134
aF0.7239819004524887
aF0.3327813685166391
aF0.297902886735374
aF0.6372688477951636
aF0.6306620209059234
aF0.520511234796949
aF0.6460317460317461
aF0.8055555555555556
aF0.9272727272727272
aF0.6705882352941176
aF0.31841247796592065
aF0.5717615717615717
aF0.5094894413258487
aF0.6237288135593221
aF0.0
aF0.7101449275362319
aF0.49736611062335384
aF1.0
aF0.6619047619047619
aaa(lp28
S'N51282.graphml'
p29
a(lp30
F0.7692307692307693
aF0.7243107769423559
aF0.43544303797468353
aF0.43853820598006643
aF0.5966101694915255
aF0.5446708463949843
aF0.6153846153846154
aF0.7243293246993524
aF0.5691699604743083
aF0.7142857142857143
aF0.6071428571428571
aF0.4749658002735978
aF0.4318840579710145
aF0.0
aF0.461470640098748
aF0.6160919540229886
aF0.6808080808080809
aF0.6764184397163121
aF0.5655266757865937
aF0.4687816891206722
aF0.44924903100775193
aF0.403531403692655
aF0.7161654135338346
aF0.8285714285714286
aF0.6473684210526316
aF0.7628458498023716
aF0.9130434782608695
aF0.8236559139784946
aF0.6343434343434343
aF0.5015649452269171
aF0.6848979591836735
aF0.46505050505050505
aF0.7660098522167488
aF0.6733615221987315
aF0.8004926108374384
aF0.8083623693379791
aF0.8789473684210526
aF0.6187387387387387
aF0.9722222222222222
aF0.5065490510558674
aF0.7024038461538461
aF0.5675675675675675
aF0.9090909090909091
aF1.0
aF0.5494252873563218
aF0.7222222222222222
aF0.6702898550724637
aF0.6206896551724138
aF0.3699537557805274
aF0.4107844465519577
aF0.5123261694058154
aF1.0
aF0.803030303030303
aF0.8095238095238095
aF0.4861654353179777
aF0.7017543859649122
aF1.0
aF0.6046511627906976
aF0.5569727891156463
aF0.8
aF0.6467532467532467
aF0.6621052631578948
aF0.369258853596203
aF0.4265339966832504
aF1.0
aF0.9636363636363636
aF0.5117889773062186
aF0.553545129391963
aF0.5884615384615385
aF0.5558441558441558
aF0.7272727272727273
aF0.780952380952381
aF0.5046296296296297
aF0.708974358974359
aF0.5703211517165006
aF0.48092105263157897
aF0.5015561015561015
aF0.9090909090909091
aF0.5764309764309764
aF0.58
aF0.36245380635624536
aF0.5936139332365747
aF0.41388757675956545
aF0.849802371541502
aF0.95
aF0.34326487991646365
aF0.33347590533219273
aF0.0
aF0.6947115384615384
aF0.713487071977638
aF0.6256410256410256
aF0.6266666666666667
aF0.7818181818181819
aF1.0
aF0.0
aF0.5
aF0.6928104575163399
aF0.6666666666666666
aF0.8055555555555556
aF0.0
aF0.0
aF0.5161399932042134
aF0.5509518477043673
aF0.7916666666666666
aF0.7600422832980972
aF0.607563025210084
aF0.7268817204301076
aF0.5676546391752577
aF0.622704004817826
aF0.5457627118644067
aF0.6792682926829269
aF1.0
aF0.6395173453996983
aF0.4432026688907423
aF0.8562091503267973
aF0.6367816091954023
aF0.5190682333539477
aF0.8021978021978022
aF0.567283950617284
aF0.572463768115942
aF0.8333333333333334
aF0.6256684491978609
aF0.9166666666666666
aF0.810752688172043
aF0.6271929824561403
aF0.8476190476190476
aF0.3404926108374384
aF0.9239130434782609
aF0.5946684894053315
aF0.7857142857142857
aF0.7804232804232805
aF0.7421052631578947
aF0.5093795093795094
aF0.5164873919943572
aF0.8225108225108225
aF0.9714285714285714
aF0.7692307692307693
aF0.9333333333333333
aF0.7142857142857143
aF0.6891766882516188
aF0.782608695652174
aF0.8947368421052632
aF0.8105263157894737
aF1.0
aF0.7912087912087912
aF0.8727272727272727
aF0.7777777777777778
aF0.6436036036036036
aF0.7197039777983348
aF0.7724867724867724
aF0.6928571428571428
aF0.0
aF0.8455882352941176
aF0.9083333333333333
aF0.5538778311599176
aF0.49796472184531887
aF0.6228571428571429
aF0.7619047619047619
aF0.5784313725490197
aF0.6946236559139785
aF0.6457912457912458
aF0.519774011299435
aF0.43850499782703173
aF0.8571428571428571
aF0.676923076923077
aF0.5184371184371185
aF0.8727272727272727
aF1.0
aF0.6503327283726558
aF0.7781512605042017
aF0.3350713842333954
aF0.8947368421052632
aF0.0
aF1.0
aF0.9523809523809523
aF0.7611408199643493
aF0.7202380952380952
aF0.6831372549019608
aF0.7376344086021506
aF0.7275132275132276
aF0.5140029873039582
aF0.5706729356450191
aF0.8433333333333334
aF0.8188405797101449
aF0.6576576576576577
aF0.7818181818181819
aF0.8466666666666667
aF0.6448880822746521
aF0.495970695970696
aF0.6856060606060606
aF0.6564482029598309
aF0.4722938144329897
aF0.5298037763791188
aF0.5486299307437519
aF0.6411149825783972
aF0.6050420168067226
aF0.6997885835095138
aF0.7668825161887142
aF0.8142857142857143
aF0.6192307692307693
aF0.8333333333333334
aF0.8444444444444444
aF0.7058823529411765
aF1.0
aF0.7159663865546219
aF0.639080459770115
aF0.5598765432098766
aF0.8
aF0.7076648841354723
aF0.6065128900949797
aF0.0
aF0.7027027027027027
aF0.3712404608708664
aF0.5646879756468798
aF0.4102776245633388
aF0.39220982920878356
aF0.5993670886075949
aF0.5586247428739347
aF0.7894736842105263
aF0.6862745098039216
aF0.5151515151515151
aF0.5825949367088608
aF0.8333333333333334
aF0.7561576354679803
aF0.849802371541502
aF0.8789473684210526
aF0.7631578947368421
aF0.8461538461538461
aF0.6107344632768361
aF0.6458752515090543
aF0.5327731092436975
aF0.3639150270886798
aF0.5557201036653091
aF0.9047619047619048
aF0.9150326797385621
aF0.5579415031469827
aF0.4930343187223921
aF0.391812865497076
aF0.35693065104829813
aF0.0
aF0.8
aF0.8
aF0.6818181818181818
aF0.5435897435897435
aF0.6666666666666666
aF0.5111111111111111
aF0.5862068965517241
aF0.8205128205128205
aF0.5416666666666666
aF0.8928571428571429
aF0.5163578128574697
aF0.6909803921568628
aF0.5132517838939857
aF0.5986250661025913
aF0.7192307692307692
aF0.5779340984820437
aF0.7310344827586207
aF0.6945812807881774
aF0.6435897435897436
aF0.6463768115942029
aF0.5151061173533084
aF0.7279411764705882
aF0.5789473684210527
aF0.7692307692307693
aF0.7629233511586453
aF1.0
aF1.0
aF0.5022123893805309
aF0.5754290876242095
aF0.746031746031746
aF0.601063829787234
aF0.30191360844627174
aF0.3325451559934319
aF0.8713450292397661
aF0.6857142857142857
aF0.48514357053682894
aF0.456
aF0.5529139490847885
aF0.6059754851889684
aF1.0
aF0.8611111111111112
aF0.7354497354497355
aF0.6813655761024182
aF0.9444444444444444
aF0.2963622625215889
aF0.5231372549019608
aF0.7142857142857143
aF0.8333333333333334
aF0.7307692307692307
aF0.567003367003367
aF0.5808857808857809
aF0.636766334440753
aF0.4018350536961735
aF0.0
aF0.355225988700565
aF0.5841530054644809
aF0.8727272727272727
aF0.6636636636636637
aF0.7951690821256039
aF0.6944444444444444
aF0.8614718614718615
aF0.75
aF0.7293844367015099
aF0.6888285843509724
aF0.6281221091581869
aF0.8021978021978022
aF0.5468844525105868
aF0.4985858585858586
aF0.783068783068783
aF0.7275132275132276
aF0.7705627705627706
aF0.768270944741533
aF0.7268817204301076
aF0.6436170212765957
aF0.30183946488294316
aF0.3433825944170772
aF0.7684210526315789
aF0.7253787878787878
aF0.4973843058350101
aF0.5464640561075395
aF0.8909090909090909
aF0.9555555555555556
aF0.6974789915966386
aF0.3039814007555943
aF0.42587601078167114
aF0.4651451637944419
aF0.52
aF1.0
aF0.7238095238095238
aF0.75
aF0.8214285714285714
aF0.7719298245614035
aaa(lp31
S'N51388.graphml'
p32
a(lp33
F0.515832482124617
aF0.9604743083003953
aF0.3655913978494624
aF0.3715415019762846
aF0.7131242740998839
aF0.625
aF0.5142857142857142
aF0.5344611528822055
aF0.5909090909090909
aF1.0
aF0.8333333333333334
aF0.4843304843304843
aF0.5754985754985755
aF0.0
aF0.5441860465116279
aF0.6566666666666666
aF0.6892911010558069
aF0.6705370101596516
aF0.43701883701883704
aF0.5332759609868044
aF0.3793706293706294
aF0.4762301918265221
aF0.81313598519889
aF0.9090909090909091
aF0.6606060606060606
aF0.5934838948537579
aF0.9044117647058824
aF0.8399014778325123
aF0.7782258064516129
aF0.6416490486257929
aF0.5718426501035196
aF0.5049452018176958
aF0.9264069264069265
aF0.6541353383458647
aF0.7563025210084033
aF0.6712626995645864
aF0.8333333333333334
aF0.6522702104097453
aF0.8666666666666667
aF0.48546691403834263
aF0.6264880952380952
aF0.6448880822746521
aF1.0
aF0.6666666666666666
aF0.8
aF0.6428571428571429
aF0.9090909090909091
aF0.8545454545454545
aF0.4375653082549634
aF0.3712871287128713
aF0.4643383126446455
aF1.0
aF0.6666666666666666
aF0.7857142857142857
aF0.6005967604433078
aF0.8235294117647058
aF1.0
aF0.5986531986531987
aF0.5634615384615385
aF0.9044117647058824
aF0.6139860139860139
aF0.48223684210526313
aF0.44813801809383547
aF0.33249464169229337
aF0.8596059113300493
aF0.6352941176470588
aF0.43326732673267326
aF0.3954232283464567
aF0.4838112858464385
aF0.5443548387096774
aF0.9047619047619048
aF0.6017316017316018
aF0.5194805194805194
aF0.5222222222222223
aF0.6378737541528239
aF0.47878787878787876
aF0.5585707824513795
aF0.8545454545454545
aF0.7575757575757576
aF0.5862775217613927
aF0.35871459694989105
aF0.7634146341463415
aF0.3800987548303993
aF0.6972549019607843
aF0.8347578347578347
aF0.35573239021514885
aF0.3136992040217847
aF0.0
aF0.8362573099415205
aF0.9004329004329005
aF1.0
aF0.6049094097019287
aF0.73
aF0.0
aF0.0
aF0.75
aF0.5555555555555556
aF1.0
aF0.8
aF0.0
aF0.0
aF0.8451219512195122
aF0.7389006342494715
aF0.6694915254237288
aF0.8
aF0.6873563218390805
aF0.8701298701298701
aF0.5560439560439561
aF0.6505175983436853
aF0.7382645803698435
aF0.7426829268292683
aF0.9583333333333334
aF0.5948581560283688
aF0.6761363636363636
aF0.5952380952380952
aF0.5289855072463768
aF0.6123076923076923
aF0.6883116883116883
aF0.8095238095238095
aF0.7333333333333333
aF0.5333333333333333
aF0.8003565062388592
aF0.8611111111111112
aF0.8
aF0.8115942028985508
aF0.7222222222222222
aF0.39683350357507663
aF0.7333333333333333
aF0.7308377896613191
aF0.7692307692307693
aF0.8181818181818182
aF0.6133209990749307
aF0.7120772946859903
aF0.5516475379489079
aF0.0
aF0.0
aF0.0
aF1.0
aF0.0
aF1.0
aF0.9428571428571428
aF1.0
aF0.0
aF0.9444444444444444
aF1.0
aF0.8666666666666667
aF0.8888888888888888
aF0.7484143763213531
aF0.8051948051948052
aF0.8472906403940886
aF0.7770034843205574
aF0.0
aF1.0
aF0.8830769230769231
aF0.6506493506493507
aF0.5505376344086022
aF0.5396825396825397
aF0.5928853754940712
aF0.6666666666666666
aF0.625
aF0.601010101010101
aF0.46029258098223613
aF0.5769230769230769
aF0.0
aF0.5634920634920635
aF0.5663865546218487
aF0.7424242424242424
aF0.732574679943101
aF0.6391129032258065
aF0.5891291642314436
aF0.40540223135642983
aF0.8142292490118577
aF0.0
aF0.8
aF0.0
aF0.8660968660968661
aF0.7756410256410257
aF0.6452367036820573
aF0.7192982456140351
aF1.0
aF0.5349971313826736
aF0.6390572390572391
aF0.7777777777777778
aF0.7971014492753623
aF0.8857142857142857
aF0.8
aF0.5757575757575758
aF0.5114135206321334
aF0.5546821599453179
aF0.6289640591966174
aF0.6156156156156156
aF0.7090909090909091
aF0.61875
aF0.5765432098765432
aF0.8939393939393939
aF0.7520161290322581
aF0.9169960474308301
aF0.7652916073968705
aF0.6381381381381381
aF0.5331825037707391
aF1.0
aF1.0
aF1.0
aF1.0
aF0.8308823529411765
aF0.7051282051282052
aF0.759481961147086
aF1.0
aF0.7619047619047619
aF0.524780701754386
aF0.0
aF0.7770114942528735
aF0.3568965517241379
aF0.6322981366459627
aF0.3503184713375796
aF0.3617392903107189
aF0.6139455782312925
aF0.6622023809523809
aF1.0
aF1.0
aF0.6673076923076923
aF0.5361344537815126
aF1.0
aF0.9090909090909091
aF0.8225108225108225
aF0.9809523809523809
aF0.9333333333333333
aF0.7183600713012478
aF0.757085020242915
aF0.6757410768300061
aF0.861904761904762
aF0.38367795425032464
aF0.5414556962025316
aF0.7092941998602376
aF0.6904761904761905
aF0.5513698630136986
aF0.369882026370576
aF0.381993006993007
aF0.3668525618682468
aF1.0
aF0.9
aF0.6666666666666666
aF0.5269230769230769
aF0.49
aF0.5978260869565217
aF0.45
aF0.6640211640211641
aF0.6545454545454545
aF0.7229437229437229
aF0.6374269005847953
aF0.5062873634302206
aF0.7937411095305832
aF0.6143790849673203
aF0.4544172103685417
aF0.838655462184874
aF0.5992063492063492
aF0.66
aF0.774712643678161
aF0.6051282051282051
aF0.6150793650793651
aF0.553116769095698
aF0.7376344086021506
aF0.8952380952380953
aF0.717391304347826
aF0.7011494252873564
aF0.0
aF1.0
aF0.45132743362831856
aF0.5964912280701754
aF0.8666666666666667
aF0.9333333333333333
aF0.2618793062485151
aF0.27804227766139783
aF0.9333333333333333
aF0.7333333333333333
aF0.4664835164835165
aF0.5285179990649836
aF0.4181587301587302
aF0.4047704233750745
aF0.9191176470588235
aF0.9454545454545454
aF0.9090909090909091
aF0.5498599439775911
aF0.6666666666666666
aF0.30705142770582444
aF0.592741935483871
aF0.6938020351526365
aF0.5807726075504829
aF0.825
aF0.6807610993657506
aF0.4882154882154882
aF0.6768707482993197
aF0.427547363031234
aF0.0
aF0.3587736464448793
aF0.8181818181818182
aF0.7083333333333334
aF0.6261261261261262
aF0.6743902439024391
aF0.8589743589743589
aF1.0
aF0.6
aF0.75
aF0.8857142857142857
aF0.5769230769230769
aF0.6259497369959088
aF0.520109439124487
aF0.6147959183673469
aF0.8214285714285714
aF0.7333333333333333
aF0.7219251336898396
aF0.7463768115942029
aF0.600177304964539
aF0.6921182266009852
aF0.2939410316459497
aF0.25597014925373135
aF0.5694915254237288
aF0.5457721872816212
aF0.5770114942528736
aF0.5221631205673759
aF0.8627450980392157
aF0.9777777777777777
aF0.6087542087542087
aF0.28868778280542984
aF0.6529160739687055
aF0.6352087114337568
aF0.6727272727272727
aF0.0
aF0.5256410256410257
aF0.5277777777777778
aF0.5357142857142857
aF0.7472527472527473
aaa(lp34
S'N51392.graphml'
p35
a(lp36
F0.6383116883116883
aF0.6824489795918367
aF0.5030165912518854
aF0.537746806039489
aF0.6141176470588235
aF0.5653550429669832
aF0.6923076923076923
aF0.7904761904761904
aF0.7619047619047619
aF0.8666666666666667
aF1.0
aF0.4192982456140351
aF0.5379310344827586
aF1.0
aF0.48980963045912657
aF0.6754032258064516
aF0.7358870967741935
aF0.7219973009446694
aF0.45866831581117296
aF0.6181086519114688
aF0.4218487394957983
aF0.39544869042507513
aF0.5600961538461539
aF0.6841269841269841
aF0.8105263157894737
aF0.8351648351648352
aF0.8831908831908832
aF0.7825396825396825
aF0.6457912457912458
aF0.5580693815987934
aF0.6469900642898889
aF0.46228528752800596
aF0.6977058029689609
aF0.6701902748414377
aF0.6988636363636364
aF0.6383265856950068
aF0.7516339869281046
aF0.6941489361702128
aF0.7941176470588235
aF0.4878048780487805
aF0.6061427280939476
aF0.5412587412587413
aF0.7537878787878788
aF1.0
aF0.6950067476383266
aF0.7333333333333333
aF0.7310606060606061
aF0.7602339181286549
aF0.30434782608695654
aF0.3754920634920635
aF0.4637516023358496
aF1.0
aF0.6705882352941176
aF0.7424242424242424
aF0.5441483803552769
aF1.0
aF0.0
aF0.7247311827956989
aF0.577922077922078
aF0.8974358974358975
aF0.6244019138755981
aF0.5143334925943621
aF0.3537051184110008
aF0.2863681592039801
aF0.7575757575757576
aF1.0
aF0.5624164661855119
aF0.5189003436426117
aF0.6022201665124884
aF0.5918269230769231
aF0.7333333333333333
aF0.6793650793650794
aF0.5086538461538461
aF0.6369770580296896
aF0.5075268817204301
aF0.46241408934707906
aF0.5487742594484167
aF0.9545454545454546
aF0.6142369991474851
aF0.6195918367346939
aF0.3612659423712801
aF0.7492877492877493
aF0.42458940550543606
aF0.7448275862068966
aF0.8225108225108225
aF0.256140350877193
aF0.3613710233428543
aF0.0
aF0.5803310613437196
aF0.6425339366515838
aF0.6551282051282051
aF0.6758893280632411
aF0.6236734693877551
aF0.0
aF1.0
aF0.6274509803921569
aF0.6837944664031621
aF0.7105263157894737
aF0.7
aF0.0
aF0.0
aF0.5310533515731874
aF0.4664422470018935
aF0.6182698124621899
aF0.7371794871794872
aF0.7762096774193549
aF0.9
aF0.6367231638418079
aF0.5374625374625375
aF0.5003805175038052
aF0.7621564482029598
aF1.0
aF0.5827450980392157
aF0.5185185185185185
aF0.7309941520467836
aF0.6386554621848739
aF0.46220633299284986
aF0.7076023391812866
aF0.5581395348837209
aF0.6
aF0.8333333333333334
aF0.7619047619047619
aF0.8758169934640523
aF0.619774011299435
aF0.701058201058201
aF0.7867647058823529
aF0.2884841363102233
aF0.9454545454545454
aF0.6173469387755102
aF0.7433155080213903
aF0.4809299895506792
aF0.6617647058823529
aF0.6312785388127854
aF0.6241519674355496
aF1.0
aF0.9555555555555556
aF0.7285714285714285
aF0.7619047619047619
aF0.6317073170731707
aF0.635522664199815
aF0.7333333333333333
aF0.7966666666666666
aF1.0
aF0.8476190476190476
aF0.8666666666666667
aF0.8363636363636363
aF0.6593406593406593
aF0.6611030478955007
aF0.8374384236453202
aF0.8596491228070176
aF0.635846372688478
aF0.8545454545454545
aF0.8011695906432749
aF0.8369565217391305
aF0.5239398084815321
aF0.4839685420447671
aF0.49489274770173647
aF0.7857142857142857
aF0.5021604938271605
aF0.7207977207977208
aF0.5525316455696202
aF0.4637757800105764
aF0.40038709677419354
aF0.7802197802197802
aF0.5359477124183006
aF0.440067214339059
aF0.9166666666666666
aF0.9047619047619048
aF0.6396761133603239
aF0.6797385620915033
aF0.3259029927760578
aF1.0
aF0.0
aF0.0
aF0.9
aF0.7651515151515151
aF0.6470588235294118
aF0.6923076923076923
aF1.0
aF1.0
aF0.421203953279425
aF0.5797814207650274
aF0.9122807017543859
aF0.8761904761904762
aF0.5145459888333823
aF0.8
aF0.6705882352941176
aF0.5614906832298137
aF0.51242983159583
aF0.6772486772486772
aF0.5749019607843138
aF0.4471491228070175
aF0.6220779220779221
aF0.5283663704716336
aF0.587012987012987
aF0.6093514328808446
aF0.5714285714285714
aF0.7540322580645161
aF0.8633333333333333
aF0.782608695652174
aF0.6
aF0.8
aF0.3333333333333333
aF0.9090909090909091
aF0.7512315270935961
aF0.6245847176079734
aF0.6114708603145236
aF0.7272727272727273
aF0.7941176470588235
aF0.6069651741293532
aF1.0
aF0.7692307692307693
aF0.34751552795031054
aF0.5918269230769231
aF0.37247745813653926
aF0.38691516210444576
aF0.6229508196721312
aF0.6513605442176871
aF0.9166666666666666
aF0.967032967032967
aF0.48184818481848185
aF0.5746268656716418
aF0.7254901960784313
aF0.8380952380952381
aF0.7862068965517242
aF0.8225108225108225
aF0.7413793103448276
aF0.7446153846153846
aF0.618421052631579
aF0.674645390070922
aF0.696969696969697
aF0.3201964395334561
aF0.6207650273224044
aF0.734920634920635
aF0.8571428571428571
aF0.53083645443196
aF0.4004132231404959
aF0.34994934143870315
aF0.41589517162797324
aF1.0
aF1.0
aF0.7777777777777778
aF0.6068376068376068
aF0.5137420718816068
aF0.6164021164021164
aF0.5894736842105263
aF0.6666666666666666
aF0.8939393939393939
aF0.8021978021978022
aF0.8
aF0.4418604651162791
aF0.592929292929293
aF0.4811379097093383
aF0.5973063973063973
aF0.6416040100250626
aF0.6491228070175439
aF0.9047619047619048
aF0.6518218623481782
aF0.7243589743589743
aF0.5819209039548022
aF0.5135802469135803
aF0.9264705882352942
aF0.7543859649122807
aF0.8717948717948718
aF0.8571428571428571
aF0.8333333333333334
aF1.0
aF0.5161082474226805
aF0.5103324348607368
aF0.8083333333333333
aF0.6910268270120259
aF0.3290380313199105
aF0.4391336818521285
aF0.8034188034188035
aF0.8681318681318682
aF0.5042016806722689
aF0.4368815592203898
aF0.4875309347039787
aF0.47272374296253156
aF0.9333333333333333
aF0.9285714285714286
aF0.6666666666666666
aF0.6207482993197279
aF0.8666666666666667
aF0.31012232826992875
aF0.8627450980392157
aF0.6841269841269841
aF0.7415384615384616
aF0.6956862745098039
aF0.648766328011611
aF0.5502702702702703
aF0.8095238095238095
aF0.41267723102585485
aF0.0
aF0.3282173941930769
aF0.7034482758620689
aF0.6888888888888889
aF0.6589147286821705
aF0.7825396825396825
aF0.7032967032967034
aF0.8185483870967742
aF0.75
aF0.7136524822695035
aF0.8002699055330634
aF0.7517241379310344
aF0.8157894736842105
aF0.5862068965517241
aF0.5456020772476469
aF0.9191176470588235
aF0.7310344827586207
aF0.6413793103448275
aF0.7421602787456446
aF0.9083333333333333
aF0.6478053939714437
aF0.26237578211262425
aF0.3190217391304348
aF0.8333333333333334
aF0.6602150537634408
aF0.4765432098765432
aF0.5365402405180388
aF0.9285714285714286
aF0.7818181818181819
aF0.6551724137931034
aF0.27721135298980437
aF0.6799242424242424
aF0.6257928118393234
aF0.5021337126600285
aF0.8333333333333334
aF0.6091954022988506
aF0.7582417582417582
aF0.7454545454545455
aF0.8333333333333334
aaa(lp37
S'N51393.graphml'
p38
a(lp39
F0.5667634252539913
aF0.6367149758454106
aF0.45865384615384613
aF0.392083644510829
aF0.6620689655172414
aF0.5337763012181617
aF0.45714285714285713
aF0.6603174603174603
aF0.7272727272727273
aF0.6320346320346321
aF0.7660818713450293
aF0.4823529411764706
aF0.5188536953242836
aF0.8333333333333334
aF0.6436058700209644
aF0.6666666666666666
aF0.6374207188160677
aF0.6950757575757576
aF0.5290575127973502
aF0.5104319717895974
aF0.39173228346456695
aF0.4003409388932599
aF0.6977058029689609
aF0.7644927536231884
aF0.8285714285714286
aF0.8496732026143791
aF0.7435897435897436
aF0.819047619047619
aF0.6589147286821705
aF0.4986830553116769
aF0.5780245470485097
aF0.46488392594769323
aF0.7069701280227596
aF0.7619047619047619
aF0.6606606606606606
aF0.8660968660968661
aF0.0
aF0.6063348416289592
aF0.6534090909090909
aF0.5059649122807017
aF0.6409774436090225
aF0.4745945945945946
aF0.7720588235294118
aF1.0
aF0.6088709677419355
aF0.6666666666666666
aF0.5866807610993657
aF0.6341463414634146
aF0.3304853041695147
aF0.39569740786457414
aF0.45504950495049507
aF1.0
aF0.6691176470588235
aF0.7714285714285715
aF0.5410798122065728
aF1.0
aF1.0
aF0.5780487804878048
aF0.47769953051643194
aF0.7435897435897436
aF0.6909090909090909
aF0.4155520587463939
aF0.33033112582781454
aF0.2903380772233231
aF0.8846153846153846
aF0.0
aF0.379741935483871
aF0.3931372549019608
aF0.6382575757575758
aF0.5843920145190563
aF0.8571428571428571
aF0.6685633001422475
aF0.47753164556962024
aF0.7789855072463768
aF0.5031712473572939
aF0.3853073463268366
aF0.473015873015873
aF0.9696969696969697
aF0.5820029027576198
aF0.49232736572890023
aF0.3350914599932667
aF0.7953216374269005
aF0.3273291925465838
aF0.758893280632411
aF1.0
aF0.25768411082169074
aF0.34473425196850394
aF0.0
aF0.6506122448979592
aF0.6015686274509804
aF0.6955602536997886
aF0.526984126984127
aF0.6916666666666667
aF0.0
aF0.0
aF0.6363636363636364
aF0.7368421052631579
aF0.8571428571428571
aF0.8484848484848485
aF0.0
aF0.0
aF0.42667509481668775
aF0.5096656217345873
aF0.7883597883597884
aF0.6382335148215366
aF0.7765151515151515
aF0.6600790513833992
aF0.6313725490196078
aF0.4941282746160795
aF0.5015432098765432
aF0.6403061224489796
aF0.9555555555555556
aF0.6690196078431373
aF0.4968421052631579
aF0.7133333333333334
aF0.7205882352941176
aF0.4922448979591837
aF0.803030303030303
aF0.5600539811066126
aF0.7140151515151515
aF0.6553846153846153
aF0.5807692307692308
aF0.9555555555555556
aF0.6114081996434938
aF0.7549407114624506
aF0.6512096774193549
aF0.38484848484848483
aF0.7973856209150327
aF0.5493877551020409
aF0.5390199637023594
aF0.6322751322751323
aF0.7380952380952381
aF0.4518416838252116
aF0.42644513672551054
aF0.6774193548387096
aF0.6210826210826211
aF0.8
aF0.6593406593406593
aF0.6875
aF0.6415362731152204
aF0.7666666666666667
aF0.7307692307692307
aF0.8333333333333334
aF0.738562091503268
aF0.8484848484848485
aF0.6798418972332015
aF0.6212438853948288
aF0.6846846846846847
aF0.7883597883597884
aF0.7720588235294118
aF0.4880187025131502
aF0.6428571428571429
aF0.8611111111111112
aF0.7573529411764706
aF0.4830387004300048
aF0.44246031746031744
aF0.5158562367864693
aF0.6900584795321637
aF0.6895161290322581
aF0.38749046529366893
aF0.4869933454325469
aF0.4186708860759494
aF0.46096491228070174
aF0.8589743589743589
aF0.5525641025641026
aF0.4932400932400932
aF0.7866666666666666
aF0.0
aF0.6893939393939394
aF0.8210526315789474
aF0.31498079385403327
aF0.8431372549019608
aF0.9047619047619048
aF0.8928571428571429
aF0.5846372688477952
aF0.7922077922077922
aF0.633816425120773
aF0.7310924369747899
aF0.7111111111111111
aF0.9358974358974359
aF0.5265432098765432
aF0.5780849974398361
aF0.76
aF0.8571428571428571
aF0.6474358974358975
aF0.7142857142857143
aF0.75
aF0.5641627543035994
aF0.47198879551820727
aF0.8083333333333333
aF0.5458269329237071
aF0.43722943722943725
aF0.5535444947209653
aF0.5525793650793651
aF0.6428571428571429
aF0.6621621621621622
aF0.6840336134453782
aF0.7258064516129032
aF0.7310924369747899
aF0.5656565656565656
aF0.8888888888888888
aF0.7454545454545455
aF0.8787878787878788
aF0.7878787878787878
aF0.562753036437247
aF0.5291607396870555
aF0.45753746694093445
aF0.8888888888888888
aF0.7195767195767195
aF0.5954521417239556
aF0.0
aF0.8484848484848485
aF0.3036698480978626
aF0.5234741784037559
aF0.29339174881343555
aF0.3935969868173258
aF0.504352278545827
aF0.632996632996633
aF0.8095238095238095
aF0.9560439560439561
aF0.4225004408393581
aF0.5731523378582202
aF0.945054945054945
aF0.7948717948717948
aF0.8791208791208791
aF0.9272727272727272
aF0.8658008658008658
aF0.8717948717948718
aF0.7083333333333334
aF0.5858823529411765
aF0.5264586160108549
aF0.30833532362073085
aF0.6046365914786967
aF0.6492450638792102
aF0.6439024390243903
aF0.4798076923076923
aF0.4789189189189189
aF0.38186295813414456
aF0.3634546181527389
aF0.8636363636363636
aF0.8571428571428571
aF0.6030769230769231
aF0.5714285714285714
aF0.4671328671328671
aF0.6666666666666666
aF0.5608163265306122
aF0.6301564722617354
aF0.5897435897435898
aF0.7293447293447294
aF0.8666666666666667
aF0.4474053295932679
aF0.6850574712643678
aF0.5136932707355243
aF0.6486486486486487
aF0.6284013605442177
aF0.6152450090744102
aF0.7707509881422925
aF0.5681511470985156
aF0.6576576576576577
aF0.5968627450980392
aF0.47469135802469137
aF0.7526315789473684
aF0.9340659340659341
aF0.719327731092437
aF0.6761904761904762
aF1.0
aF1.0
aF0.487012987012987
aF0.5171092951991828
aF0.554006968641115
aF0.6404040404040404
aF0.2812987012987013
aF0.3574603174603175
aF0.7784615384615384
aF0.6947368421052632
aF0.472039072039072
aF0.42718446601941745
aF0.48168938786420745
aF0.47054871220604705
aF1.0
aF0.6666666666666666
aF0.8666666666666667
aF0.6171717171717171
aF0.9166666666666666
aF0.2897068847989093
aF0.8008658008658008
aF0.7471264367816092
aF0.5654520917678812
aF0.5486338797814208
aF0.7103448275862069
aF0.7620967741935484
aF0.7397849462365591
aF0.3885941644562334
aF1.0
aF0.32994164297471196
aF0.5872053872053872
aF0.8901098901098901
aF0.5178258328462887
aF0.6731182795698925
aF0.7142857142857143
aF0.6996047430830039
aF1.0
aF0.8
aF0.6814516129032258
aF0.6356382978723404
aF0.8717948717948718
aF0.6023529411764705
aF0.5595959595959596
aF0.735632183908046
aF0.7660098522167488
aF0.717948717948718
aF0.5591966173361522
aF0.9358974358974359
aF0.7684210526315789
aF0.23126813449394096
aF0.3028605381546558
aF0.75
aF0.7328042328042328
aF0.4862993074375188
aF0.5
aF0.7222222222222222
aF0.8095238095238095
aF0.6016260162601627
aF0.2802561960456697
aF0.6303284416491963
aF0.5718426501035196
aF0.64349376114082
aF1.0
aF0.6329284750337382
aF0.5835748792270531
aF0.8928571428571429
aF0.8717948717948718
aaatp40
Rp41
s.