(dp0
S'betweenness_centrality'
p1
ccollections
OrderedDict
p2
((lp3
(lp4
S'N51124.graphml'
p5
a(lp6
F0.00047506479101990233
aF1.2601031942135867e-05
aF0.0022312809384474443
aF0.012688370036387552
aF0.00013394394420880728
aF0.0012466076561168096
aF0.004230525906915898
aF8.481215583205982e-05
aF0.004048893236717543
aF0.00031038917612699477
aF0.0006015073796464058
aF0.004689093568242719
aF0.008943831305171906
aF0.0
aF0.0005895714113488855
aF0.00011609179674200094
aF4.2163190613664226e-05
aF0.00018911037447480686
aF5.839691685357895e-05
aF0.0003646470270961775
aF0.007633781419452738
aF0.0036923634768931137
aF0.0
aF0.0
aF0.01024665078122089
aF0.0007381246546239452
aF0.0004228998397861605
aF0.00014172974333321703
aF0.007140504255460671
aF0.001185757489300294
aF0.0031901272305444165
aF0.0013593514247751085
aF6.394421990971644e-06
aF0.004182721691164235
aF0.00039891472726464493
aF0.0015856731872186472
aF1.3330872226112599e-05
aF3.390947762308528e-05
aF0.0
aF0.011619800415112515
aF0.0018121682893283853
aF0.025733686189491022
aF0.0
aF3.1223781417936457e-05
aF0.00028561946609647064
aF0.000142343046195232
aF6.191024731219837e-05
aF0.0002606614658197512
aF0.009871594531784475
aF0.028419632299021006
aF0.0049789213946107936
aF1.84097226499577e-05
aF0.0005564560752276611
aF0.0005428191285951477
aF0.00703727161037458
aF0.0002568100283695258
aF4.161360931479031e-07
aF0.005470302839195066
aF0.007267091879054184
aF5.019189352346505e-05
aF3.5983267788447166e-06
aF0.00021936974581673836
aF0.013899290238723883
aF0.01812073497395748
aF0.0002667221471421312
aF0.0003784623557216196
aF0.003538151152500694
aF0.003101672952304277
aF0.0015609245699822669
aF3.7251719119431625e-05
aF5.944422856101106e-06
aF0.00013474364690878584
aF0.00014059482391607858
aF0.001441381973360336
aF0.0008197274828665807
aF0.0011847160658840668
aF0.00151246103741576
aF6.561079068631938e-06
aF1.220665873233849e-06
aF0.008645843050480453
aF0.031807445491914874
aF0.0002326445833608942
aF0.00959022459460463
aF0.00023207289123717406
aF0.00025654437544644985
aF0.03664196189677338
aF0.0368392800763751
aF0.0
aF7.438259001892833e-05
aF2.497867448485905e-05
aF0.0
aF0.0005107157082338098
aF0.0005253738972144932
aF0.0
aF0.0
aF0.0004396826606394455
aF0.00013481435589745655
aF0.0007065529448295786
aF0.0006841266796903366
aF0.0
aF9.777294358108543e-05
aF0.0013150645668742536
aF0.001960720731571624
aF0.00017503506561927296
aF4.5299996145241416e-05
aF3.422875692535504e-05
aF0.001006030118337601
aF0.0011946512514705869
aF0.0007717910440771612
aF0.0006981382601257962
aF0.007766377630626616
aF4.022772478118373e-05
aF0.0012167130011394313
aF0.00019068924563925467
aF7.172197771095941e-05
aF0.0005261606593116058
aF0.0003227987427495146
aF0.0006608510123705534
aF0.0034471545787287997
aF0.00023026355911417708
aF0.0012973961277044366
aF0.00044164656688127263
aF0.0
aF0.002111293791517007
aF4.7212246320891935e-05
aF0.0001324725876044826
aF0.03514838495647416
aF2.733678448004751e-06
aF0.00033165960294243734
aF1.6716875186855845e-05
aF0.00025225774868578213
aF6.711332211445744e-05
aF0.000852366008313529
aF0.00010118162228106532
aF4.042919120952047e-06
aF0.0
aF0.0
aF5.364120107400492e-06
aF0.0
aF6.872524613549335e-06
aF8.86617870164406e-05
aF0.0
aF0.0
aF0.0
aF9.002592677050621e-05
aF0.00214849334622159
aF0.0004375565408933427
aF5.949215422727246e-05
aF0.0009797365822566061
aF0.0005815699004824202
aF6.862229600861002e-05
aF3.5471268377858084e-05
aF1.754319141101603e-05
aF0.0
aF0.009666951960941918
aF0.0007877046473407526
aF0.0008758088149617763
aF0.0
aF0.0008002931912056353
aF0.00013174199321154168
aF0.00047811576377764463
aF0.007377313913748498
aF0.0005186416684550081
aF4.578012702131499e-06
aF0.0003988252665927292
aF0.0003706455161848657
aF0.0
aF5.033931013003484e-05
aF0.00032958038129622804
aF0.0
aF0.033307265725698525
aF0.0014777475911919526
aF0.0001279319199530373
aF9.654956490513413e-05
aF2.893666513288248e-05
aF0.0003417504235265504
aF4.420932957506781e-05
aF0.0002532249472863963
aF0.0006278985832986441
aF0.0005478752226808389
aF0.002243107119455816
aF0.0022537771723615406
aF5.819389548735181e-05
aF5.041402419485177e-05
aF2.1904845773621097e-05
aF8.157108275042847e-05
aF0.0
aF0.010597308943362862
aF0.0004991386729568127
aF9.962787641835092e-07
aF0.0033934455803939735
aF0.003131566667602059
aF0.0015825297984585632
aF0.0009332869046868878
aF0.00124902572601201
aF4.359520975835175e-07
aF0.0
aF6.57182565257877e-05
aF0.0024093482353650247
aF0.0006399946813230477
aF2.084192998210321e-05
aF0.00022505698073918424
aF5.594816959333196e-05
aF0.0003568214451653438
aF7.08881634506589e-05
aF6.57134393178672e-05
aF0.0016399454263977063
aF0.0
aF0.0
aF0.0003507786528444447
aF0.0
aF1.4811331380064596e-05
aF0.019319166712662348
aF0.0016741171910233045
aF0.010812723096440992
aF0.008735289550878487
aF0.00028954583495570055
aF0.0016961946846960766
aF0.0
aF0.0
aF0.003323697560170879
aF0.00874559385779289
aF0.0
aF0.0
aF9.380793120679762e-05
aF4.029714221309388e-05
aF5.8261245892328434e-05
aF0.0002184445451410229
aF9.996035100492857e-06
aF0.0005802539073095071
aF0.000399361396577608
aF0.015032759354459971
aF0.007563362915471297
aF0.00041897289176619863
aF9.664874067401895e-06
aF0.0017429424323170402
aF0.008152258569720605
aF0.004910336237245452
aF0.02288163462772442
aF2.3849144161921837e-06
aF0.00015875919450664228
aF0.0008005282326983429
aF0.0008633520531414464
aF0.001084770555017001
aF0.0018719122806644189
aF0.0011744286361175353
aF0.0017102531611502714
aF0.00038580967400411785
aF0.0020922323860356794
aF2.034443122056415e-06
aF0.002401227787672059
aF0.00030473998708508137
aF0.001835562521619703
aF0.002300451650077619
aF0.0014204347637526474
aF0.0007714839219824014
aF0.0
aF2.6145198878658023e-05
aF6.154800955491258e-05
aF0.0035989698928929575
aF0.001361666986863404
aF0.00024665418816954046
aF0.00012724223976858678
aF0.00010167825960999001
aF4.284535102622399e-05
aF0.0
aF0.0
aF0.024323536350983894
aF0.009433575970763922
aF9.154994049253868e-07
aF4.72046907412392e-05
aF0.025374978690292923
aF0.02573665138556247
aF0.0
aF0.0003196217583372015
aF0.0035311558193203644
aF0.00277230008466928
aF0.0003922808921357565
aF0.0009009605792419702
aF7.323995239403094e-07
aF2.689881206920161e-05
aF0.0004745913240065853
aF0.001987501501590196
aF1.2154851341378258e-05
aF0.04628444012494093
aF5.705079517116473e-06
aF5.658180289838835e-05
aF0.0036571679820623657
aF3.843392547905541e-05
aF0.001660327550520824
aF0.004371719254222562
aF8.494870336822931e-06
aF0.016518083315981796
aF2.3246000330000168e-05
aF0.013084135915627184
aF3.634814333079883e-05
aF3.6927707089427363e-06
aF3.139709339938748e-05
aF0.0002633820084232949
aF0.00180119041950756
aF0.0005710885536480664
aF0.0
aF1.8309988098507736e-06
aF0.0
aF4.782555815683286e-06
aF9.453259032703166e-05
aF0.0004117822242351898
aF0.0003722501309720672
aF1.1099410756400969e-05
aF3.6989874946480275e-06
aF0.00015222424568972755
aF0.00016991671080611047
aF0.0005560749654864269
aF1.370831141420168e-05
aF0.02579887530841523
aF0.08473892989422371
aF6.861365821207591e-05
aF0.0003296764625487602
aF0.001100480704695025
aF0.0028559603025594934
aF0.00023108643001056026
aF6.481092670346072e-05
aF0.001993822829909994
aF0.023843020515945106
aF0.0013583469987867294
aF0.0037536949638965053
aF7.770697539687326e-05
aF0.0
aF0.003926184314858527
aF0.004798951734133158
aF7.853566158882323e-05
aF0.00023422694245354
aaa(lp7
S'N51130.graphml'
p8
a(lp9
F0.00015056558400605735
aF2.8574235909282687e-05
aF0.004127886456395575
aF0.005216459225739991
aF0.0030027132178162205
aF0.004315702435006848
aF0.0017640602375921096
aF0.0009394081423255182
aF3.723829380568708e-05
aF1.754707192773658e-05
aF6.1109585278769565e-06
aF0.0077630774152170345
aF0.0031845162393975245
aF0.0
aF0.0033469482234490173
aF0.011352336650105124
aF0.000538359017867932
aF3.264719109859693e-06
aF0.003710024043019734
aF0.0005738699610642487
aF0.0036742680122704794
aF0.000852669719735934
aF0.0027421079360513247
aF0.0
aF6.490523401884336e-05
aF1.1189437171310284e-05
aF0.0004555021987169339
aF1.5838650072392644e-05
aF5.8622604924982434e-06
aF0.002058671838000983
aF0.00034715782064069424
aF0.0015248846538272584
aF6.539281463752763e-07
aF0.0014080538158451606
aF2.829374217199134e-05
aF0.002680116907300336
aF3.4767495536103424e-05
aF0.000294630650716548
aF6.258955414179612e-05
aF0.0014477918970543123
aF0.0023118294670687674
aF0.00034659205370626475
aF4.685692408845389e-06
aF3.661997619701547e-06
aF0.0007858475601707466
aF0.0002634186013320562
aF0.0004597698712215283
aF0.0003209184417347529
aF0.02121891054189188
aF0.02866534393367432
aF0.00184709540646031
aF0.0
aF3.992613925194374e-05
aF1.3812508705374287e-05
aF0.004933338251319838
aF0.00011411746436598417
aF3.44821120058684e-06
aF0.004070747667920866
aF0.005497562018486934
aF2.383656432902969e-05
aF0.00012890332703409776
aF0.0011903854160925085
aF0.0006664988642811764
aF0.04902508792126584
aF2.950447142041016e-06
aF0.00026182199128303615
aF0.001434228649771245
aF0.003602267752229091
aF0.0004487042154672179
aF0.00012117357631018427
aF7.746461156880181e-05
aF0.0
aF0.00036859297687796225
aF8.772025037195245e-05
aF0.006872324447473977
aF0.007552220161661157
aF0.0
aF0.0005459596161930373
aF0.0008249291024128326
aF0.0014948947534128205
aF0.004436524196461152
aF0.0017994992531806125
aF0.0038943763830699145
aF0.0006845592303953526
aF0.0
aF0.017967425306870767
aF0.023500150686080617
aF0.0
aF1.7745105765943713e-05
aF0.0005877194795846694
aF1.1096962483944083e-06
aF4.50811914450107e-05
aF0.0006003666546957042
aF0.0
aF0.0
aF1.0150511085672745e-05
aF7.190192398884758e-05
aF1.220665873233849e-05
aF0.0
aF0.0
aF0.0
aF0.0005006073784293187
aF8.456939893865793e-05
aF9.909986831400995e-06
aF0.0
aF0.00018689791781265937
aF0.0
aF0.0023266241173682417
aF0.00016824298680311853
aF0.0007785403120691949
aF0.0004170782437269174
aF4.1520357529210944e-06
aF0.00010963288762594258
aF0.004446128938683018
aF0.0025187035811303805
aF0.002683509043844763
aF0.010831754054244367
aF0.00579475002134273
aF0.0017867999827440573
aF8.955370721421091e-05
aF0.000973163218941824
aF0.0003160080962043509
aF7.4754751422827e-06
aF0.0
aF0.0003822973140259373
aF1.3143955742143053e-05
aF0.022704178924525715
aF0.0
aF0.00022163770465601394
aF0.0
aF0.0020828446154679122
aF0.0005316302903443776
aF0.0030065452433536404
aF0.0002299263060090847
aF0.0
aF0.0
aF2.3259855022617753e-05
aF0.0
aF5.8120067605985696e-05
aF8.9257228289236e-05
aF1.5260135374215696e-05
aF4.098436896839849e-05
aF0.0
aF0.0
aF0.0
aF0.000788286620117144
aF0.0
aF0.0004466283669884518
aF0.0005581614801678449
aF0.0003012439127752815
aF0.0005055177503420615
aF1.8663936463877374e-06
aF0.0
aF0.00019558614321340585
aF0.0021693153354434315
aF0.0015736793300269473
aF0.003043174335556684
aF0.0
aF0.00047379657309007953
aF1.0381096004007012e-05
aF0.0002839526138335963
aF0.0024136252441857562
aF0.005610704170597592
aF0.0
aF0.0044423700309063376
aF0.01698044703223205
aF1.5342824150533967e-05
aF4.909097340946647e-06
aF0.00016633966404759544
aF0.0
aF0.02014179219373742
aF2.7742432765749295e-06
aF0.0
aF5.0309821883507793e-05
aF1.1270352522755709e-06
aF0.002865724122009125
aF4.414594063678743e-06
aF0.0008021299728315982
aF0.00017236736583219723
aF8.829548596116972e-05
aF0.007313488599953129
aF0.001200323336577553
aF0.00010837417000834852
aF5.333794170748085e-05
aF0.0001291238815626757
aF0.0008029050935751005
aF0.0018036369304961076
aF0.0025164635406250014
aF0.0008763732359744915
aF0.0003565655356573814
aF0.015022391917545102
aF0.01866233466504818
aF0.0035258106915060108
aF0.007753399844534011
aF0.0
aF0.0001357684134511363
aF4.824792636312085e-05
aF0.000625685159420818
aF0.0006492512192556132
aF0.000540538247146356
aF0.00019948785696950673
aF0.0
aF0.0001066648095779143
aF8.22316425986746e-05
aF0.0014794900808142862
aF5.511185526009383e-06
aF4.734995761536179e-05
aF0.0
aF0.0
aF0.00031183251770796564
aF0.0
aF1.450151952176376e-05
aF0.010107490010594786
aF0.0023800081079862795
aF0.014759311002520857
aF0.003999817645032835
aF2.407118501638437e-05
aF0.0019773125457662236
aF0.0
aF0.0
aF0.00016867657693312674
aF0.00305701593112076
aF0.0001367801087852242
aF2.6186084025744256e-06
aF0.0001693858280886471
aF2.4711485104641665e-05
aF2.034443122056415e-06
aF1.513010221025149e-06
aF0.0004775852534969647
aF0.0011843012210006468
aF0.0003417865026199429
aF0.0178788550501612
aF0.00042763498454631446
aF4.287497980462132e-06
aF0.0
aF0.002469488964450898
aF0.01252518911778337
aF0.019219456154822026
aF0.012047408407229843
aF0.000123384685072508
aF3.1747467304070236e-05
aF0.0019708639474050925
aF0.001735814242017182
aF0.00041427298297807847
aF0.0012908508807155444
aF0.0041269413047813255
aF0.0006485578020270882
aF0.007530631625674935
aF0.0008400485390515337
aF4.161360931479031e-07
aF0.001574895149820585
aF0.0001814614617105445
aF0.00046916833068269006
aF0.003447670493964426
aF0.00022718056482861894
aF0.0003168127744568474
aF0.0005692468295128123
aF8.755462208478116e-06
aF0.000620968351651184
aF0.004341943679687699
aF0.006726306611056109
aF1.4299017907870936e-05
aF1.86688571236519e-05
aF0.0
aF0.00020587495704727882
aF0.0
aF0.0
aF0.000470054567862744
aF0.0019375754354614963
aF0.0
aF0.0
aF0.07536233566969469
aF0.013613982741887295
aF0.0
aF1.7740735263393874e-06
aF0.0036841048284629667
aF0.0034771270320644956
aF0.0031829809311160542
aF0.001114024327083314
aF4.9854937308754985e-05
aF7.641853345851698e-06
aF0.0
aF0.009643118943000517
aF3.495237059177055e-05
aF0.03260720909743998
aF0.0
aF4.452341016950861e-05
aF0.001372290218568159
aF6.837317328510643e-05
aF0.001762311145586273
aF0.002256733476493681
aF6.160398344389461e-05
aF0.006559937692793401
aF0.0
aF0.006273464444309001
aF0.0012237575280362083
aF0.0009330065066561482
aF0.0004736630256164412
aF5.906447773712173e-07
aF2.9874334121678183e-05
aF3.881898792977701e-05
aF0.0
aF5.779598202244507e-06
aF2.8929832037266725e-05
aF6.900558513042071e-06
aF0.00042000416734585443
aF0.0006304935388619584
aF0.0009384275761212681
aF0.0
aF0.0
aF0.0005302529068533131
aF9.926811679967545e-05
aF0.0008869611503797964
aF3.704799801374197e-05
aF0.07537822134630638
aF0.03449092064089589
aF1.2000622396212355e-05
aF6.640586100923075e-05
aF0.0036546774737858186
aF0.002740403107724723
aF0.0
aF3.7367322650015785e-07
aF0.004110915323194508
aF0.04747606903207274
aF1.284518047895362e-05
aF0.0
aF0.0
aF0.0
aF0.00031762873550376345
aF0.001629938335061805
aF2.905052458539047e-05
aF8.890194184086205e-05
aaa(lp10
S'N51133.graphml'
p11
a(lp12
F6.48997271326331e-05
aF2.638630345075461e-06
aF0.00932771703270349
aF0.0012133575613482242
aF0.002103616719035287
aF0.000840951486487759
aF0.00031028614114934477
aF0.0010281497657580858
aF0.0003202670050761515
aF0.0
aF0.0
aF0.0024515885178501735
aF0.0037944595460602634
aF0.0
aF0.004715554267484791
aF9.876285886810739e-05
aF9.399813335821967e-05
aF0.00039197218730502287
aF0.0027967815332498045
aF0.002463329656998092
aF0.006524867120398553
aF0.006884600232007981
aF0.00036585968745786896
aF0.0001060842305020334
aF0.00015255013480701784
aF3.3375815600329994e-05
aF0.0002332930854958004
aF0.0
aF0.000264041327286587
aF0.0028327056988548733
aF0.0004241879117289694
aF0.001589953554009657
aF6.156301980117805e-05
aF0.0032569678134941
aF3.0509865840111114e-05
aF0.00013191572094589638
aF7.3669515426225266e-06
aF0.001774642244659135
aF6.280859099340562e-06
aF0.005595321678024337
aF0.0016723885008446883
aF0.0009269348796538646
aF5.012701924973476e-05
aF0.0
aF4.028274893213599e-05
aF4.2666367802039775e-05
aF0.00045765946890399925
aF0.00010640394859937391
aF0.007624260028530463
aF0.020904143328415333
aF0.0010498989796914626
aF0.0
aF0.0001690375387711779
aF0.00010216680254822138
aF0.0028268842818454814
aF0.0007822951511582321
aF0.0
aF0.005986381320956175
aF0.001654077712892011
aF4.590575587554438e-06
aF0.0016736677727930158
aF0.0009600217207352258
aF0.02568548530098659
aF0.015813809677809015
aF0.00023529929208384632
aF0.0007977530196353474
aF0.0026816297497424453
aF0.005391721211688046
aF0.00039970835958430285
aF0.00677573128434807
aF0.0003871788957167396
aF0.0002853631488577413
aF0.004246051399900969
aF0.004082268323975332
aF0.0010461484403884657
aF0.0068624236945532616
aF0.000848119241859903
aF3.605598222461721e-06
aF0.00016074100591613303
aF0.0002892002065415533
aF0.02104798374422144
aF4.860068039715357e-05
aF0.019792119731597144
aF0.000581924003740636
aF3.5203664973555735e-06
aF0.013563481589403978
aF0.022523348578785515
aF0.0
aF3.898324950081829e-06
aF0.0
aF2.8687200914807908e-05
aF0.0002676793049930536
aF0.002946948674758367
aF0.0
aF0.0
aF0.00027982581265232324
aF9.346329273862397e-05
aF0.0
aF0.0
aF0.0
aF0.0
aF0.00015990950823870762
aF0.0007923841913828598
aF4.583200863302439e-05
aF2.5710134078359875e-05
aF0.0003980682821740645
aF0.0001988308827347591
aF0.0032112260256627542
aF0.000334005067319887
aF0.0020856144072749776
aF0.00046934427394670236
aF0.0
aF0.0036287251922056474
aF0.0022879351308675586
aF0.00032588514396686804
aF0.0015807323359147984
aF0.00035935572913320076
aF0.0011959416659322543
aF0.00034160637955786094
aF0.0031878263177965646
aF0.0002692359315897642
aF0.0008310854193576418
aF0.0
aF1.6974555475664357e-05
aF1.9694722121944274e-05
aF0.002079848487081099
aF0.004965099046706956
aF3.1386267794204774e-05
aF0.00022488152959074037
aF0.00016642040101292417
aF0.00031254248928091214
aF0.0001061831071454996
aF0.0011034933521823108
aF0.002398778068075497
aF0.0
aF0.0
aF8.804131572867636e-06
aF0.0
aF0.0
aF3.8145808538557783e-07
aF6.902066932161582e-06
aF0.0
aF5.626484806745553e-06
aF1.5258323415423113e-06
aF2.949942526981802e-05
aF0.0
aF1.2286252646440461e-05
aF0.00035339222808625676
aF9.404165084441885e-05
aF0.00010037569947592325
aF8.601435741873726e-05
aF0.0
aF0.0
aF7.862530549950579e-05
aF0.0028473411269907974
aF0.0020097619274509807
aF0.002935576587673359
aF0.0008494925182450559
aF0.0005362997935337663
aF0.002450233535273385
aF0.00188188429493288
aF0.005386870769426611
aF0.002564377059041854
aF0.0
aF0.006322703762835764
aF0.006755124140828449
aF2.977638201894703e-06
aF8.020489056096927e-06
aF0.00026309050207834933
aF5.365950123096768e-06
aF0.01043367970351127
aF6.129171959778341e-05
aF0.0
aF0.0
aF0.0
aF0.00044497449263906485
aF2.238167340672999e-05
aF0.00021248991935190516
aF2.7044219632842716e-05
aF0.000119125641685454
aF0.005982532667635352
aF0.005059396644461999
aF5.915156768155964e-06
aF8.685799797311436e-05
aF0.0003137886697845224
aF6.098090488652527e-05
aF0.0007679229761863626
aF0.002485160214203679
aF0.002534553284695623
aF7.204535259128595e-05
aF0.0036182954474293107
aF0.005230810906842469
aF0.0032938884516886873
aF0.0016442752598930645
aF1.4998494285916292e-05
aF0.00011903845161201305
aF8.023181672942341e-06
aF0.00030411974409842274
aF0.0026942612713096335
aF0.00028763754883194293
aF9.63683584131986e-07
aF0.0
aF7.738149732107434e-06
aF0.0
aF0.0007017470200193991
aF0.0002017061892864311
aF0.0039144242042449
aF1.8121413470250679e-06
aF0.0
aF0.0015433569805957264
aF0.0
aF4.012420861340726e-05
aF0.018350587398051458
aF0.0009105263790535966
aF0.016387625177035587
aF0.008710416242868347
aF0.00026351346720071713
aF0.0006840700287629681
aF1.1553363317599765e-06
aF0.0
aF0.002015272665385666
aF0.004666045992459957
aF4.694868743207112e-07
aF6.711264860414168e-06
aF3.079463692000653e-05
aF1.6092045311371725e-05
aF6.766746736464085e-05
aF0.00018446543564467748
aF0.0012452845526203912
aF0.0008695130366458564
aF5.92335418405269e-06
aF0.023228989307444492
aF0.0013220700357394106
aF1.182520064695291e-06
aF3.1609879818560757e-06
aF0.003178160019484034
aF0.008141450001047724
aF0.015569792386107877
aF0.00825791767811318
aF0.0
aF4.8234291749573765e-05
aF1.8848647439465575e-05
aF5.227357828891473e-05
aF0.005953284449596609
aF0.0001198085173954706
aF0.0034351567416747693
aF0.00017995109037780135
aF0.000260319296197161
aF0.00010229445509422264
aF6.902111346365663e-05
aF0.0014203848431678884
aF0.0006738479421599347
aF0.0002900326738777147
aF0.0029085370208628393
aF0.0038983398253464945
aF0.0011427342901981041
aF0.0015042715516375299
aF2.5700053412961724e-05
aF7.088298737025335e-05
aF0.0020971517318981348
aF0.0030604902807092453
aF0.0003274494451541837
aF0.000711089699462786
aF5.205846313368015e-05
aF0.00018661272056107056
aF0.0
aF6.261570038069159e-06
aF0.003857954264740978
aF0.009114315899921201
aF0.0
aF3.4021993664325855e-05
aF0.039225216676380396
aF0.05476713881821297
aF0.0
aF0.0
aF0.0026891819524979387
aF0.003793703951178136
aF0.005485844087043818
aF0.004541467948821994
aF4.464174540224243e-06
aF8.158300414895268e-06
aF5.008162667400658e-05
aF0.0021677803865614623
aF8.672485149542303e-05
aF0.0284375736866192
aF0.0020288634203391607
aF7.670491845089175e-05
aF0.0009481969480252867
aF0.0
aF0.0003139655499356891
aF0.003525557817693767
aF0.0005705695422736085
aF0.01678065829737891
aF0.0
aF0.01684183223553176
aF0.0013257450854547844
aF0.0002696906309974534
aF0.0007069498717473731
aF2.888472017716545e-05
aF0.00012267641062683286
aF9.766238966344967e-05
aF8.056424638562305e-05
aF9.154994049253868e-07
aF1.4671464822522222e-06
aF0.000839210662615024
aF0.0007645868774896626
aF0.0019753549428004817
aF0.0017407451206704861
aF3.0516646830846227e-07
aF0.0
aF0.00017184737979959285
aF6.0634257137156595e-05
aF0.0001010564098381926
aF0.0001841301342555172
aF0.08162516030249548
aF0.0512450167804366
aF5.0631470411835526e-05
aF0.0002379255496118723
aF0.0007317553024455419
aF0.0011943166403260048
aF0.0
aF1.7766330188580054e-06
aF0.002588206516890133
aF0.0434553287121005
aF0.0002675479921857242
aF0.004502004495137918
aF4.9312587550140185e-05
aF0.0
aF0.0007245886111635327
aF0.0005354884644846672
aF0.0001165591583024973
aF0.00016248460534408132
aaa(lp13
S'N51136.graphml'
p14
a(lp15
F3.8307092029255884e-05
aF3.8042772033478385e-05
aF0.001147778278466838
aF0.00018093531124666442
aF0.0013882544632527936
aF0.0013272248218929759
aF0.00042166552637295515
aF0.0011606375180612755
aF5.9356395859744065e-05
aF0.0
aF5.807079635157777e-05
aF0.0036036620692213926
aF0.0036408751728042653
aF0.0
aF0.0011489449197104448
aF0.00010967151557602212
aF7.464963503146647e-05
aF0.0003256400183923425
aF0.008169455843097655
aF0.0013717108637127603
aF0.019418017511287876
aF0.007066832798344507
aF0.0003800526371536235
aF0.00027914035949001256
aF0.002539716998050063
aF0.002025442453965501
aF8.218109202094466e-06
aF5.824408845517483e-06
aF0.00027324632569724445
aF0.0009026240192070525
aF0.0024656926439473757
aF0.0017280370332383138
aF1.0295343810215444e-05
aF0.005207272707383418
aF0.00020526635865752426
aF0.000602114925998546
aF3.107262509174464e-05
aF0.003503827635555201
aF3.200401281083705e-06
aF0.004789081239456153
aF0.003048692645214257
aF0.004073044378115864
aF0.0
aF0.0
aF0.0
aF0.0019329771328298255
aF0.0001871575276132726
aF0.0003220590792825541
aF0.009529911820630342
aF0.012357751279863858
aF0.005182427725355745
aF0.0
aF6.735550185824616e-05
aF4.01203087503693e-05
aF0.0014402383791178172
aF8.07007973455178e-05
aF0.0
aF0.00708999305390577
aF0.0036162652921269186
aF0.00010353542215008863
aF0.0007974889689731924
aF0.0010940127345367067
aF0.012428773878024718
aF0.04247994421189392
aF0.00010486254148400095
aF8.088158695500804e-05
aF0.008693156275846216
aF0.012873843464265405
aF0.0015647544850832063
aF0.001371917268726685
aF7.968646430599004e-05
aF0.00021218556926700242
aF0.0024956937632751265
aF0.0012502598176961635
aF0.0011364657558013546
aF0.006834309495245445
aF0.0013135913008579011
aF5.3743205807656975e-06
aF0.0002569331540587874
aF0.0011331616418203943
aF0.024773746888513578
aF0.0001202129448589074
aF0.019790773747255134
aF0.0008593947164110127
aF0.0
aF0.016331502333841397
aF0.01177366990452256
aF0.0
aF0.0001545295244386825
aF0.00012972701638671122
aF0.0
aF0.00012223426087118068
aF2.146777532499427e-05
aF0.0
aF0.0
aF0.00020764111229281247
aF0.00018487456960482955
aF0.0
aF1.5432378274791584e-05
aF0.0
aF0.0
aF0.0005018398573389373
aF0.001004740293061083
aF4.968148340510194e-05
aF2.8487013711195587e-05
aF8.328897562124179e-05
aF7.084120301404089e-05
aF0.002611225758963545
aF0.0008216267014534623
aF0.0007035305681533415
aF0.0003278319195247426
aF1.0349466618636447e-05
aF0.0036262341662623016
aF0.0008683605587876968
aF0.0013055632478584556
aF0.002886167712746987
aF0.0023132667006150695
aF0.00305267206500438
aF0.0012152059988096958
aF0.0004708672776260813
aF8.379957519227165e-05
aF0.0006634533799874087
aF2.1265015289533983e-05
aF6.062016674875007e-05
aF0.00045323288219411114
aF0.0006088762161677635
aF0.006964587774931612
aF0.00010347267115396933
aF0.0006336524778446558
aF0.00019445965924713072
aF0.00013610328715858103
aF5.1488127148302106e-05
aF0.0009708488309108355
aF0.0013874642785191064
aF0.0
aF0.0
aF3.45006384236573e-05
aF2.068631740961965e-05
aF3.6368051072721255e-06
aF1.488867509750618e-05
aF0.0
aF1.7894986914915724e-06
aF0.0
aF0.0
aF0.0
aF8.448110901195133e-05
aF1.639710650936869e-05
aF0.0003718560475301604
aF0.0004909003194113599
aF6.240006563949865e-05
aF0.000586507094723697
aF6.177231252338497e-06
aF4.948645432029118e-07
aF5.3860347184806e-06
aF0.0003445682300850303
aF0.0010457695611003502
aF0.0013197895803345075
aF0.007457427220233858
aF0.000975546928616152
aF0.0005895619166439781
aF0.0002266369471750878
aF0.006145796636410775
aF0.03749517546249756
aF0.0
aF0.006833375212862413
aF0.005410690306636754
aF0.0
aF0.0
aF0.0004062343459127453
aF0.00023752352105257853
aF0.01562689055332676
aF0.0011294542266050667
aF1.088296255051011e-05
aF5.3566866167562996e-05
aF2.3223438868207696e-05
aF0.00010835625245344276
aF0.00019087975880128602
aF5.1744734140784065e-05
aF0.00011572127972465506
aF9.74843826920165e-06
aF0.003040431713751703
aF0.0012953751185542707
aF1.374584761913092e-05
aF6.570569891808996e-07
aF0.00015848768326048372
aF6.120393095274216e-05
aF0.00398823738478403
aF0.002264775087343858
aF0.0026156529390100334
aF0.00010980467997913004
aF0.007404429073878383
aF0.0009084366054338665
aF0.0033996928174703893
aF0.004468250341343874
aF0.001109198502703802
aF0.0005546428676195793
aF0.00036008597145845237
aF0.0007730751737222088
aF0.0014516483862300486
aF0.0008706514406273668
aF3.30930150827905e-05
aF0.0
aF0.0
aF0.0
aF0.0005189032864652944
aF7.377159442297808e-05
aF0.001255017741848766
aF0.0
aF8.748584714380762e-07
aF0.00501286220323504
aF0.0
aF2.1811549333583855e-05
aF0.016482965938178103
aF0.001776058228504989
aF0.007179617439535158
aF0.011581442081303668
aF0.00020175219964656133
aF0.0010598281694475542
aF0.0
aF0.0
aF0.0016833925507997018
aF0.002522122691987054
aF5.539283593829527e-07
aF0.0
aF2.2244713193560367e-05
aF3.7553445529733426e-06
aF1.284482481143267e-05
aF0.00015054254029594157
aF5.586232459711851e-05
aF0.0016610548474100292
aF4.45251670144707e-06
aF0.014270102395580223
aF0.002075175315280058
aF4.384563441751696e-05
aF7.892843928885695e-05
aF0.0035319252979618414
aF0.003987425097454933
aF0.007233225399647123
aF0.009076935665233439
aF0.0
aF4.6387039549704515e-06
aF0.0004850631680339667
aF0.0013154664804522933
aF0.0006262062824264416
aF0.000564274513902644
aF0.0035624995605705733
aF0.002829623703026891
aF6.684598829613936e-06
aF1.2581901856476572e-05
aF0.0005808794380440132
aF0.0038007053800080005
aF0.00020586182891576017
aF0.0006578876563034548
aF0.004276435811925651
aF0.0009071695059807047
aF0.0007431545161340502
aF7.213744255890524e-05
aF0.0001851023063881634
aF0.00042281402713859186
aF0.004223889176920111
aF0.0021862255718753903
aF4.120322294807927e-05
aF2.932173943918531e-05
aF8.004021607630203e-05
aF0.00011722037614167681
aF0.0
aF0.0
aF0.0033310642889868955
aF0.003344995869948928
aF0.0001030419959161924
aF0.00011254698705818324
aF0.06491516598072702
aF0.08279183224014387
aF0.0
aF1.6348203659381905e-06
aF0.006828358617800395
aF0.005422753476513613
aF0.009911698357151343
aF0.009751137064436893
aF0.0
aF8.71904195167035e-07
aF4.304386576882969e-05
aF0.0013986490046131305
aF8.71904195167035e-07
aF0.04160022409496851
aF0.0001176648617913708
aF0.006322934734341017
aF0.001354607544699745
aF9.922111541034693e-05
aF0.002956214778474793
aF0.004136981861083752
aF6.743083384830088e-05
aF0.00757458564462881
aF0.0
aF0.012798067964891115
aF0.0010140040477146627
aF0.00014388579655540847
aF1.1443742561567335e-06
aF0.00025371103569024367
aF0.0002473912865105549
aF0.0003153681607481447
aF0.0
aF0.0
aF5.494522201836407e-05
aF1.5845538855579537e-05
aF0.0009124843250232377
aF0.0006103286841383069
aF0.0005697530613543485
aF7.690566207552138e-06
aF3.5861265673172936e-05
aF0.00015031179909906454
aF2.7469956221688637e-05
aF6.934710088141523e-05
aF0.0002806856537860481
aF0.04842697631980415
aF0.04358025996099344
aF8.384656108652716e-05
aF0.0004829778215904444
aF0.0012136438963609917
aF0.0015472472959810405
aF2.2264951360265834e-05
aF2.438099573045159e-05
aF0.0014408118408348084
aF0.01763481614736174
aF0.00027619716462607715
aF0.0011481622230029966
aF0.0
aF0.0
aF0.0004718652818198735
aF0.0001379076848197629
aF4.24160520886587e-05
aF0.0005404022827592131
aaa(lp16
S'N51201.graphml'
p17
a(lp18
F0.006126228034496261
aF7.535052694470905e-05
aF0.01589835575065085
aF0.0017715604011887182
aF0.0009758483595825232
aF0.0011844253173912583
aF0.0012768099668661569
aF0.00015048845805352786
aF0.00021409353640430612
aF1.0898802439587938e-05
aF0.0
aF0.0021104586639191032
aF0.006798556946328187
aF0.0
aF0.002940688407706016
aF0.00020929210648774375
aF0.0002652101657466283
aF0.00023993700557590445
aF0.0018716591914918338
aF0.005439136100100988
aF0.008826664557313285
aF0.01558339458611777
aF0.0020020390765599725
aF0.0004635615920580793
aF0.0005182505468924903
aF0.0028893923077301983
aF5.4093797249755205e-05
aF2.845603752851339e-06
aF0.0008886121626798686
aF0.0005592586519922793
aF0.000951629673228391
aF0.003911953240180571
aF2.117201725539878e-05
aF0.0020675313321753415
aF9.728825361492983e-05
aF9.427748019005737e-05
aF1.5737746260916375e-06
aF0.0022605604562301383
aF3.928740086054483e-06
aF0.005974592666013412
aF0.0014045264481915313
aF0.0011409163032744438
aF4.75486514466222e-05
aF5.762255854039629e-06
aF0.00018722766305812242
aF0.0003578600249229102
aF0.0009861964810923725
aF0.00012107532149544779
aF0.020588652173144338
aF0.011187862472956011
aF0.002188846941584904
aF6.103329366169245e-07
aF0.00016944291778049563
aF0.00014148996467130677
aF0.004266266532106556
aF0.0006926467931066924
aF0.00014272308505405753
aF0.0015417291030583942
aF0.003473082377713336
aF4.296767197601143e-05
aF0.0015989543736792031
aF0.0014444431073937912
aF0.04957081785113834
aF0.02858544175619114
aF1.6110241647097138e-05
aF0.0001615101777991743
aF0.004745264911132618
aF0.01112378352710468
aF0.0006413932623851345
aF0.00035240727870736996
aF2.8938916722153957e-05
aF1.7781146863586747e-05
aF0.0014385561366452649
aF0.0013708044471706679
aF0.0008551348287166303
aF0.004030348524780353
aF0.00011017825437493273
aF4.7014288595461924e-06
aF8.566311331004915e-05
aF0.0004882184144697518
aF0.02051970407692639
aF0.0010683160764993756
aF0.020266917825136406
aF3.333615993129304e-05
aF7.371285803806567e-06
aF0.020994796078807946
aF0.02853646012492257
aF1.0172215610282074e-06
aF5.291183304380357e-06
aF4.838222306397729e-06
aF3.211945701520785e-05
aF0.0004577471627777324
aF0.0013862782121451163
aF0.0
aF0.0
aF0.00016760773573796375
aF0.0001429451578341958
aF0.0
aF9.992664910049883e-05
aF0.0
aF0.0
aF0.0011580858322739922
aF0.0015823197465689113
aF0.0009225401917400767
aF0.0003959390018801114
aF3.798332102669065e-05
aF0.0
aF0.0016890061716842097
aF0.0027656074889943327
aF0.00413998288940042
aF9.690894745451517e-05
aF0.0
aF0.0011638569647280598
aF0.0001607083441777539
aF0.002513178573010215
aF0.00020828455052084163
aF0.00046841179532140743
aF8.734628748336647e-05
aF0.006572401238334148
aF0.00023189560792808095
aF0.0022420529810534746
aF0.0014498711022740258
aF3.4937937894943466e-05
aF4.9371398778324644e-05
aF0.0007748335180538207
aF0.0002816395837246875
aF0.003660060282350829
aF3.731057344318183e-05
aF0.0012537829445643108
aF0.002095095609902656
aF9.594928431792817e-05
aF8.448896223961491e-05
aF0.0026384775030294486
aF0.00046079321501729
aF0.0
aF0.0
aF2.821283691444585e-06
aF4.4873782326232446e-06
aF0.0
aF0.0
aF8.097232746541392e-06
aF4.1308884368996395e-05
aF0.0
aF0.0
aF5.293027415704188e-05
aF2.1695745545070803e-06
aF0.00014586109442903935
aF0.0007786626934271792
aF0.00024255902690357666
aF0.00010585169506164092
aF0.0003216390333607951
aF0.0
aF9.594953621780288e-06
aF5.6678131560810865e-05
aF0.0015190916228987302
aF0.0015965569762527386
aF0.00044457948236305473
aF0.00017710208639570678
aF0.0006281688509548831
aF0.00023274321614996773
aF0.002985525370219755
aF0.0018009254847149577
aF0.01293683267100571
aF0.0
aF0.0012152152895391214
aF0.012054728944675769
aF3.590193744805438e-07
aF4.0688862441128304e-07
aF0.0005765788824239514
aF2.9161864897073276e-05
aF0.011557427634188853
aF1.5616616030036287e-06
aF4.709603720864364e-07
aF7.25259982498746e-05
aF2.478833204343841e-06
aF0.00013257129733758554
aF0.0002519559294030992
aF0.0002879752894171168
aF0.00033118062123739295
aF8.79647847828242e-05
aF0.0030583459187243957
aF0.002402007360241114
aF4.048036542282443e-05
aF1.6889359809704924e-06
aF0.0006585558248523274
aF0.00012646393639490064
aF3.704124138565462e-05
aF0.004819825473070688
aF0.003180129578035211
aF0.00012318013006311845
aF0.0013876646817948027
aF0.0015918482606520116
aF0.01668481248039418
aF0.001153911252347963
aF0.0001901291264195278
aF0.0005807677176171463
aF3.454714735567497e-07
aF0.00028172974132164875
aF0.0017368991043123973
aF0.00245375919886801
aF0.0
aF1.220665873233849e-06
aF2.843596636510671e-06
aF5.24869094308659e-05
aF7.43873116219381e-05
aF0.00016808705470469117
aF0.002573731482414492
aF0.0
aF1.3770043170506885e-05
aF0.0014355522843996042
aF0.0
aF2.0162784513237685e-06
aF0.047578201751624194
aF0.0016109542752310146
aF0.017095243620347617
aF0.005727850847181189
aF0.0005484083097969589
aF0.0003091143968631084
aF2.56359130104047e-05
aF0.0
aF0.0020861597714324216
aF0.0011964170180488187
aF0.0
aF0.0
aF1.6132531990572482e-05
aF0.0002370458681329142
aF0.00022316886883825223
aF6.726186373416918e-05
aF2.8362881490283057e-05
aF0.000930212314124061
aF0.0006986045522565648
aF0.02119556776073432
aF0.0014319725334708527
aF8.749750524760118e-05
aF0.00038318519796180566
aF0.0037127859175757707
aF0.01502344594992605
aF0.009929755248746393
aF0.009271963305896129
aF0.0009258399827910778
aF0.0
aF0.0005959691001423563
aF9.5360272933087e-05
aF0.0009584341560539202
aF0.002996707642348445
aF0.002163082228829265
aF0.0013383403375103592
aF0.00031458123587206074
aF0.0002864373047572776
aF0.00041493218252561015
aF0.001785067968942525
aF0.0007140564407174672
aF0.00024070674720855757
aF0.0023722358036656023
aF0.006278735092131446
aF0.0009508789579684804
aF0.00047185957106590456
aF0.0001907437352366426
aF0.001887792955651211
aF0.0010822471013853898
aF0.0067569610686895815
aF0.0004444341240595038
aF0.00013217800679485946
aF0.009520021867274618
aF0.0006756567828322009
aF0.0
aF0.0
aF0.0038092665060083667
aF0.008307099743350078
aF2.518710456371269e-06
aF0.00016072063883787712
aF0.030413748485980736
aF0.038125922630014165
aF5.721871280783667e-07
aF2.018793559579058e-06
aF0.005656111793462378
aF0.005752451257387916
aF0.011753941651108166
aF0.007680752042071306
aF0.0
aF7.243201673839667e-05
aF5.2795237634575685e-05
aF0.005376970842939311
aF1.0688786353727996e-05
aF0.025954259557207565
aF7.879389276259965e-05
aF0.00014981724694804934
aF0.0003126700017073116
aF2.409208960329965e-07
aF0.00044087854312056254
aF0.008605903178917173
aF0.00014522288693463357
aF0.011444663888355668
aF8.715278514590877e-06
aF0.013898365128460365
aF1.4084606229621335e-06
aF1.1775445244511315e-06
aF2.472017551715258e-05
aF0.00016407447538902697
aF0.0014847560433417979
aF0.00010271341371271414
aF0.0002074789933793073
aF3.0090049428912513e-06
aF0.00020393370188332525
aF0.00031155794225186525
aF0.00022668799413638475
aF0.0007460901736522658
aF0.0014460701575183385
aF2.828634840874631e-05
aF8.351004015097938e-05
aF0.00014865043643356096
aF8.680716402463663e-05
aF9.142205337939631e-05
aF0.0013321853624649676
aF0.043933093127244506
aF0.02781932518968347
aF3.00827559723047e-05
aF0.00024998267366502014
aF0.002533869846019334
aF0.00199200636287922
aF4.0044577490562936e-05
aF1.0578959815276074e-05
aF0.0009303311081501275
aF0.02765051319776601
aF0.0007790046230269684
aF0.003139404305896332
aF0.00010931461141555235
aF0.0
aF0.0010284375768288138
aF1.8419884434539373e-05
aF1.7345162524948903e-05
aF0.001463312604244137
aaa(lp19
S'N51234.graphml'
p20
a(lp21
F0.00010430592263105016
aF0.0005561206897136476
aF0.00441088475021444
aF0.007460894608145483
aF0.00010746439692209548
aF0.0004638812242728412
aF0.00374028791497688
aF0.00010317765832470758
aF0.0007033050259772896
aF9.154994049253868e-07
aF0.0
aF0.005777244630679617
aF0.003611578484102191
aF0.0
aF0.0032138562889966016
aF0.00043174685164007026
aF0.0002589775026893363
aF0.00016179508013844843
aF0.002076270536777871
aF0.0026190272845409016
aF0.010386010293012978
aF0.0064561410790474226
aF4.710376063045308e-05
aF9.738092544692544e-05
aF4.846669432972896e-05
aF0.00017601468827938197
aF0.00011079525417298691
aF1.0696544876662307e-05
aF0.0018120399616370051
aF0.0010447019543287574
aF0.0019188672678533511
aF0.0012529771039744193
aF0.0005545577474002005
aF0.0008730821150973855
aF0.0003607713963525046
aF0.0005971972031990391
aF6.0006914466055994e-05
aF0.0014259820973738123
aF1.582941882748748e-05
aF0.0055511786636866485
aF0.0013166688514497612
aF0.011379496485925114
aF0.0
aF0.0
aF7.78598010979826e-05
aF4.514223321014629e-05
aF0.00042840290882937486
aF0.0002976793504768451
aF0.009639703677938169
aF0.025007475883911938
aF0.0008672693053387661
aF1.6924356017464572e-05
aF0.0002839206213708198
aF0.0008432351865386596
aF0.0036291217701857293
aF3.0053506496892583e-06
aF0.0
aF0.0012190683656620638
aF0.0019504710699770962
aF2.5464950452447434e-05
aF0.0017289059567080398
aF0.00169841701087659
aF0.013902816661586395
aF0.024427905800613818
aF3.6780207196873445e-05
aF0.0
aF0.004240974606041112
aF0.004594014257166965
aF0.0009928603661142701
aF0.0038319295196663898
aF0.0007633221319969282
aF4.4359556385611906e-05
aF0.003471436402650335
aF0.0019526377554778768
aF0.0017695645098735845
aF0.0012735352808007356
aF0.003695491113225767
aF2.547977875909563e-05
aF5.820672524586662e-05
aF0.006232109380751701
aF0.012861741950060542
aF5.817689110148718e-05
aF0.012754576461551759
aF0.00022767323582301488
aF0.0
aF0.029482892457326645
aF0.02699386490312637
aF0.0
aF0.00015138085057286442
aF0.0007551896435750564
aF0.00012006044120606466
aF0.0005629962058535189
aF0.00020208295324436037
aF0.0
aF0.0
aF0.0002595584727832045
aF0.0003593629359143734
aF4.588273430971916e-05
aF0.0
aF0.0
aF0.0
aF0.0021189316594582264
aF0.0012416754402629158
aF0.0010097774624074495
aF0.00019318838820078316
aF5.763823260026775e-05
aF0.0005911495330858549
aF0.0013941521230387299
aF0.00036958743365843105
aF0.00047697995297233325
aF0.002469255034328736
aF0.0
aF0.0014928958779459698
aF0.002476654283897422
aF0.0027677019309960364
aF0.0008628462957754193
aF0.001084514084795403
aF0.004246562532610928
aF0.00027111123960560493
aF3.751495409860325e-05
aF5.5127206009034216e-06
aF0.0003069941897873292
aF1.74380839033407e-06
aF0.00012194731641665026
aF1.010266730913806e-05
aF3.9087995516114836e-05
aF0.014752118053821709
aF5.789470014288196e-05
aF0.00023283810273140544
aF5.3556648083534714e-05
aF5.8701132449757683e-05
aF7.051791183853456e-05
aF0.003224628019019828
aF0.0032742297688578975
aF1.7241727534617345e-06
aF0.00014657427088512237
aF4.611671867746523e-06
aF0.00013312775228738926
aF0.0001335453983860194
aF0.0003550113440269486
aF1.1206419245252912e-05
aF0.0
aF4.927464113331668e-05
aF1.3346155007863695e-06
aF0.0
aF0.00010207235429409846
aF5.726360339028088e-05
aF0.00045522251291135756
aF0.0011286446182749846
aF0.0006112591823448227
aF0.00011794230992260866
aF1.2881047306057857e-06
aF9.549419534331763e-05
aF1.4259193618268191e-05
aF0.001571982663506485
aF0.006407504150514915
aF0.0068692756279789095
aF0.0029494988427161044
aF1.7524605847860392e-05
aF0.004003219875299652
aF0.0024723978281553966
aF0.003519223322082323
aF0.005625598752027673
aF0.0
aF0.006403067543971869
aF0.0001450802075076444
aF0.0
aF7.78642604020623e-06
aF0.0008936477709480287
aF8.428407219948006e-07
aF0.015912629200543135
aF3.7520265747227e-05
aF0.0
aF1.8696588189912495e-05
aF2.0132464410783687e-05
aF0.00012477546156549428
aF0.000328293535126998
aF0.0001423873738826868
aF1.806765923204524e-05
aF6.421771428407896e-05
aF0.0027953075003150614
aF0.0038510391177866495
aF3.590193744805438e-07
aF8.844119782524322e-05
aF0.0002673965865241222
aF5.071973508409721e-05
aF0.0005494060453855681
aF0.0010582298298012624
aF0.004293307081769321
aF0.0003315024125262037
aF0.010278606738440086
aF0.003434026577535388
aF0.0022922307900019316
aF0.0017879206819611483
aF0.0011081357741001743
aF0.0024272123881204258
aF0.0005360053349530854
aF0.00017200735019148278
aF0.0004149758853921297
aF0.0023853894901071197
aF0.0
aF1.5190716450105699e-06
aF4.7049126458326305e-06
aF9.154994049253868e-07
aF0.0011816847842115816
aF0.0009666624176749963
aF0.0019636098051166975
aF0.0
aF0.00022611066748471484
aF0.0024577981876625233
aF0.0
aF0.00020443537913300352
aF0.01776448647627381
aF0.003719733855796389
aF0.012558526217855184
aF0.006838181994139966
aF0.0036335791222581923
aF0.001464468020688411
aF0.0005727783185952897
aF0.00022329958500407138
aF0.0016867053416326939
aF0.0030587373230564455
aF2.0879631391645172e-05
aF1.6677029008128487e-06
aF7.77574551637704e-06
aF8.242621356839201e-06
aF1.0207356597518008e-05
aF6.544252997086265e-05
aF0.0006073118222225969
aF0.00015159616714293287
aF0.00030554864393068714
aF0.015703183914335894
aF0.004525281700942769
aF1.8916380320108776e-05
aF0.000174375817222794
aF0.0016127193156177686
aF0.006886316959905736
aF0.01818853420020464
aF0.007747855274297166
aF2.6307474476481224e-05
aF4.959351620930664e-06
aF4.953117731916186e-05
aF2.0680578511018626e-05
aF0.0014434784825470347
aF0.002044732696050069
aF0.0009481683869972721
aF0.0010242170462473512
aF0.00015082407259904448
aF6.447626437471637e-05
aF1.502499845506888e-06
aF0.003220242536706174
aF0.00015802155493227328
aF0.00016509807680075813
aF0.0007596757392972378
aF0.0003626690420981042
aF0.000753505185463051
aF0.00013263897238483856
aF0.0002888692317350305
aF0.00019961649709792324
aF0.0032422399099826787
aF0.001514641044135068
aF6.299555219074207e-05
aF8.052513886339821e-06
aF0.0003581484191132691
aF7.431796584611397e-05
aF0.0
aF0.0
aF0.002542877587008303
aF0.0019434669114827847
aF7.960864390655537e-07
aF2.494063911938182e-05
aF0.040568627916950345
aF0.05883011978477161
aF0.00014540536235354505
aF2.684174177721723e-05
aF0.0042576359506384664
aF0.0034263391194001677
aF0.0023900121029993156
aF0.0026119180995927828
aF0.0
aF1.8874637461524074e-05
aF6.068255140386762e-05
aF0.003229134877711437
aF5.206624159815836e-06
aF0.03384481089032508
aF0.00236048314620974
aF0.0006970024948926441
aF0.0007526584485618666
aF0.0012514744978099972
aF0.00010334620925157423
aF0.003391451189689902
aF8.642013522860722e-05
aF0.009820969168859467
aF0.0
aF0.014058056986183246
aF7.359909171821008e-05
aF0.0002163359743788142
aF0.00031798890224632236
aF0.000577599422128457
aF5.392943292100879e-05
aF2.000391406073075e-06
aF2.3573904142369873e-05
aF3.508998625132448e-05
aF0.0005359497436476005
aF0.006197554571004228
aF9.457823703959031e-05
aF0.0007665071349388223
aF0.0032657932110398734
aF9.825708501545875e-05
aF0.0001875880810269473
aF0.00015953321195686903
aF4.2299237456550465e-05
aF0.000317704989987526
aF1.627554497645132e-06
aF0.036223211286941996
aF0.0348691563595133
aF0.00011533174592641306
aF0.0001585297429817495
aF0.004843025962951348
aF0.00438540219689617
aF0.0
aF0.0
aF0.0005661103685755494
aF0.02757819854382281
aF0.002782195550072083
aF0.0021439037621376884
aF0.0005768596900390867
aF0.0
aF0.0008954921350014371
aF0.0014692733600762823
aF6.640768616625354e-06
aF0.0003943227593321456
aaa(lp22
S'N51241.graphml'
p23
a(lp24
F0.0005499900675927613
aF1.5597271759563922e-05
aF0.02112849833601165
aF0.009683993290685854
aF7.266806759964381e-05
aF0.0028146481410759633
aF0.0048678416629297575
aF0.0005123148758351728
aF0.0006880349259388301
aF0.0
aF1.0492215709581425e-05
aF0.0200234223828373
aF0.004638825397876183
aF0.0
aF0.0022123733458486922
aF1.8974173941296738e-05
aF0.0
aF9.803561576886326e-05
aF0.0
aF0.0
aF0.0026740344389527123
aF0.0007345812049636999
aF0.0
aF5.789321911266432e-06
aF7.585857653814163e-05
aF7.735098117762696e-05
aF0.0
aF2.373417719224715e-05
aF0.016076412456937188
aF0.004375877350649661
aF0.0014963640946444865
aF0.0007360771170717604
aF4.4891088407631673e-05
aF0.0008041037730752892
aF0.0002246784926842492
aF0.0004837826692586011
aF0.0
aF0.0009603630262428323
aF0.0
aF0.0013620354079969619
aF0.0
aF0.002536892297124954
aF0.0
aF6.103329366169245e-06
aF0.0003231362552320859
aF0.0003359695109741664
aF3.1772940512286344e-05
aF0.0
aF0.009088100342348774
aF0.018712061516930247
aF0.0017843944667643638
aF0.0
aF5.709407522096343e-05
aF3.661997619701547e-06
aF0.0024115181689247736
aF2.034443122056415e-06
aF0.0
aF0.0006310848056314585
aF0.0003565918795419223
aF6.278197762124612e-05
aF9.713483148275577e-05
aF8.44862970652589e-06
aF0.0036970199686519184
aF0.007826229864120378
aF3.1788173782131483e-06
aF0.0
aF0.001130434408418529
aF0.0011152835435716364
aF0.00030948529433273963
aF9.941153857660313e-06
aF0.0
aF0.0
aF4.218095347046599e-05
aF0.00031635067381842875
aF0.0024596291138789003
aF0.018589456629874056
aF0.0009136864962985688
aF0.0
aF0.00018759596111743838
aF3.562735487959713e-05
aF0.01117927175223331
aF0.006021477613075315
aF0.0003468202967311418
aF1.3397143306508865e-05
aF0.0
aF0.01032468313907102
aF0.007503441888656978
aF0.0
aF6.103329366169245e-06
aF0.0
aF0.000498772370166415
aF0.0002901307002201917
aF4.129130269163795e-06
aF0.0
aF4.914686925549559e-05
aF4.351499639086913e-05
aF3.72582547809134e-05
aF1.8309988098507736e-05
aF0.0
aF0.0
aF0.0
aF0.0
aF0.0
aF0.0
aF0.0
aF0.0
aF7.960864390655537e-07
aF0.0
aF0.0
aF0.00033036580093676954
aF4.541348530508348e-05
aF0.0
aF1.8058850666101876e-05
aF0.00021020377434490962
aF0.00042814773348363215
aF0.003937188086729126
aF2.9968221525630564e-05
aF0.006393822225438779
aF8.71904195167035e-06
aF8.111734590550764e-05
aF0.0
aF0.00492354816491601
aF0.0
aF0.0
aF0.0
aF0.0
aF0.02001685423858571
aF0.0
aF0.003693671464808034
aF0.0
aF0.00017978922630484777
aF0.0
aF0.00013539856270201327
aF0.0003363570195775505
aF0.0
aF0.0
aF0.00012684794900021346
aF3.842093379365035e-05
aF0.0
aF0.0
aF0.0
aF1.3078562927505526e-06
aF4.0291475477138826e-05
aF0.0
aF0.0
aF0.0
aF0.0
aF2.962039999801341e-05
aF0.00023401423970682392
aF0.0
aF0.0
aF0.0
aF0.0
aF0.0
aF0.0
aF0.00024644122135146675
aF0.0009951551221601311
aF2.5973147853045098e-05
aF1.1189437171310284e-05
aF0.02368588828951401
aF0.0
aF0.011004731775676437
aF0.004556913639474063
aF0.0006043752134067484
aF0.001276771320407217
aF0.004559959109870001
aF0.0
aF4.1089503875296175e-05
aF0.00015971968272551266
aF0.0
aF0.021730588476325727
aF0.00011558786007807301
aF0.0007724214151041527
aF0.0
aF2.9478243856879088e-05
aF0.0
aF0.0
aF0.0
aF0.0
aF0.0
aF0.010692455248138671
aF0.007692216909676979
aF2.8468243636100738e-05
aF3.190376714133924e-06
aF0.00013665344259196013
aF0.0006756799821484682
aF0.002541170833296742
aF0.0007701629166326002
aF0.0014109757118696451
aF0.0003114546133399667
aF0.00880441961497888
aF0.0006258095864307826
aF0.002376121391498335
aF0.003583734168200798
aF0.0
aF4.183886364815547e-05
aF0.0
aF0.0
aF8.810465563889263e-06
aF2.441331746467698e-06
aF0.0
aF2.5973147853045098e-05
aF0.0
aF0.0
aF0.0002174482160083625
aF1.1815622911475701e-05
aF0.0007742573017000555
aF0.0
aF1.008015936041527e-06
aF0.00010809132181219383
aF7.962273823301013e-06
aF4.481465618515879e-06
aF0.011370804723215786
aF0.0002464371647797595
aF0.0008017974202620819
aF0.010224120641848264
aF0.00041327670956409126
aF4.732651539937745e-05
aF0.0
aF0.0
aF0.0006915267843286215
aF2.7445700949671996e-05
aF0.0
aF0.0
aF0.0
aF2.816921245924267e-06
aF0.0
aF4.083942981018357e-05
aF0.0
aF2.3039945302464135e-05
aF0.0
aF0.0280800248578264
aF0.0020874546928084455
aF0.0
aF2.3326450677004877e-05
aF0.0035129181871114325
aF0.0011828485209202544
aF0.006515585657377398
aF0.03001361493994229
aF1.8753866597865497e-05
aF0.0
aF7.616147622989611e-05
aF0.006263214987903656
aF0.006015271354990107
aF0.005967545693351223
aF0.0032107811127808773
aF0.0027100828265972567
aF8.375250917828018e-05
aF0.005419327282416394
aF0.0
aF0.003395426031587267
aF0.0
aF0.0026045509789392623
aF0.005732864257041484
aF0.0016706593404512177
aF6.4520910442360585e-06
aF0.0004484913565431377
aF0.0003260857461332896
aF0.0
aF0.000523353126997391
aF0.0006650376669939506
aF0.0001900792609647911
aF0.00043466513715311145
aF6.761499608794229e-05
aF0.0
aF0.0
aF0.0
aF0.011989627481468295
aF0.0028746153690993466
aF0.0
aF2.499458692812167e-06
aF0.06865745980489962
aF0.14317136794353413
aF0.0
aF0.0
aF0.0023605593307996766
aF0.005305642958118302
aF0.005824629449180356
aF0.0020242647964683123
aF0.0
aF1.6645443725916124e-06
aF0.0
aF0.004891383457325331
aF0.0
aF0.015957225468370785
aF0.004220315683304335
aF3.3695499048836186e-05
aF0.003560282211393448
aF4.307501528427796e-05
aF0.0014105594290523685
aF0.002079547205950379
aF0.0
aF0.009810487970174793
aF0.0
aF0.0016162872746976619
aF0.0001876046242680955
aF0.0
aF0.0021378131906716986
aF0.0
aF0.0009860278318961746
aF0.0
aF0.00011007677419427959
aF5.220328241637837e-05
aF0.0
aF0.0
aF0.00039663083359760926
aF0.00024912773899766485
aF0.0004547980930961976
aF8.76074261885337e-05
aF0.0
aF1.2314561808075226e-05
aF0.00025349360927952617
aF5.837641111458554e-06
aF9.901908189622244e-05
aF0.05839108772706154
aF0.18648422780322602
aF0.0
aF0.0001941598710155184
aF0.0004804401768637212
aF0.0006225502442924776
aF0.0
aF0.0
aF0.0005710920962521578
aF0.011040916128378193
aF0.00011293930086140668
aF0.0007085352879138852
aF0.0005077896025228466
aF0.0
aF0.0007758940975341622
aF0.00018883955122580152
aF0.0002727175788137654
aF0.00016106592719934663
aaa(lp25
S'N51252.graphml'
p26
a(lp27
F0.00015826523192300325
aF0.00565254775551131
aF0.00792784843742099
aF0.00696256710894703
aF0.0010909492821240948
aF0.0005040420228466459
aF0.00023648254292166419
aF0.0006388785436049781
aF4.250173254989144e-06
aF0.0
aF0.0
aF0.027160224285600155
aF0.0006969236050389714
aF0.0
aF0.0038329237157572957
aF0.004871042902148433
aF0.0005448688255016317
aF0.001160071809488327
aF0.0031066895341186657
aF0.001286559722603162
aF0.013626654584077972
aF0.009212751539313991
aF1.860540505116229e-05
aF5.470724103695741e-06
aF0.0006232101450006628
aF0.0003994828080244518
aF3.3623398685996624e-05
aF0.0001490808596319274
aF0.00010890126832162266
aF0.0017341000012891926
aF0.0013502256815325446
aF0.005827870573707391
aF0.00026337633941601136
aF0.003986313951875385
aF5.395582859733628e-05
aF0.0002356905034378741
aF0.0
aF0.0003708807010725482
aF1.2614037082885644e-05
aF0.007491579676267645
aF0.004380344989989285
aF0.0016634036844106017
aF0.00022744344545711447
aF3.0516646830846227e-06
aF0.004317753108006236
aF0.00015961546657181815
aF0.00033160717213978874
aF7.270103335630178e-05
aF0.008596573992795727
aF0.014336429152062704
aF0.005924947542116604
aF0.0
aF8.360196573601526e-05
aF1.9736613392202515e-05
aF0.002078731722018202
aF9.63683584131986e-07
aF0.0
aF0.0006003461978607756
aF0.00027814843266830524
aF0.00012076452532009085
aF6.074259203778459e-05
aF0.002921838989210241
aF0.01648616389159259
aF0.02040343437321402
aF9.260880791363215e-06
aF1.708437023390174e-06
aF0.008366495074404153
aF0.005781675049678525
aF0.002342230795546525
aF0.003766321568761004
aF0.0003806994451116262
aF0.0005326095587756325
aF0.0021493357389848434
aF0.006666297249365323
aF0.004642422910305072
aF0.005710501433135225
aF0.0010666566070339093
aF7.195178944516514e-06
aF0.00019658112378109156
aF0.00179382319771903
aF0.022334722660499677
aF0.001534781596561878
aF0.018221149388537576
aF0.00043726441297165766
aF2.816921245924267e-07
aF0.023132291525891614
aF0.008241121991848472
aF0.0
aF0.0005905174633391379
aF0.0018490370035389885
aF0.001276039763674705
aF0.00022791095498319295
aF7.738188365976026e-05
aF0.0
aF4.2581367670948223e-07
aF0.000254035632644539
aF0.0012726664403267872
aF0.0
aF1.0354613364583614e-05
aF0.0
aF0.0
aF0.0009094102058709796
aF0.0015097805532077735
aF0.0006046295711099581
aF0.0001531184178268437
aF0.0001211683564023446
aF0.0009472570105980034
aF0.001084517350352794
aF0.0003024507026473692
aF0.0017731114348084635
aF0.0007732587762952416
aF0.0
aF0.001574415130212844
aF0.00228741585825884
aF7.116174663658824e-05
aF0.001700760927049211
aF0.0006396350522747012
aF0.0008362277039568704
aF0.004183839287861461
aF3.720126388670008e-05
aF0.00029593211449102544
aF0.0005658977275038298
aF9.020946834147764e-05
aF4.2711257313937964e-05
aF0.00038125183774244994
aF2.5731634348437586e-05
aF0.023300421641665795
aF8.655831880555151e-06
aF0.0009674165258256673
aF5.949061284256101e-05
aF5.201814925413918e-05
aF0.00027527072075487233
aF0.001568070630330821
aF0.002386860762086524
aF9.634770416625074e-06
aF3.661997619701547e-07
aF2.6306635761881253e-05
aF9.717960157677114e-06
aF0.0002459894303819133
aF0.0004992174385609062
aF0.0
aF4.247874121433669e-06
aF1.518487495150752e-05
aF6.313788999485427e-07
aF1.0793726805811399e-05
aF5.634870572237301e-05
aF9.865785512705254e-07
aF0.0020794566184347816
aF0.0017073502691505463
aF2.5749121644723784e-05
aF0.00010764928491033564
aF1.73413802174707e-06
aF1.0182493999539017e-05
aF4.2586445565375125e-05
aF0.001995680430855828
aF0.00043833346704921127
aF0.0016463321585113782
aF5.050157630240971e-05
aF0.0011407487753391178
aF0.00022553822562068764
aF0.0005867908126597926
aF0.0070447350453305135
aF0.007219677306361313
aF3.1868542427172702e-06
aF0.0011951776604540222
aF0.004792383151134301
aF5.7611977168248015e-06
aF0.0
aF0.00036280775608442064
aF0.0
aF0.011291201902610112
aF0.0001125672986487687
aF0.0
aF7.351101874718722e-06
aF6.23245928936067e-05
aF8.900810911929178e-05
aF0.00018916070900367962
aF0.0004941136482793424
aF1.488419293827328e-05
aF0.0
aF0.0027014377779820643
aF0.002938731954402976
aF1.863513947566127e-05
aF0.00014531041168072196
aF0.0001924084009011368
aF0.0003214472543303397
aF0.0033464975769248967
aF0.001861951746136775
aF0.0018927437979696937
aF0.0003993544215099515
aF0.00840502925241693
aF0.002832758846942455
aF0.00249674047792446
aF0.006913194447469106
aF2.7797791871183644e-05
aF0.00021975379600593195
aF0.0003692396040651972
aF0.00027732529313656627
aF0.001889896725633114
aF0.0005812449648420743
aF3.712543024549674e-06
aF1.991983554852275e-06
aF9.100569529847656e-06
aF6.262961104532079e-06
aF0.000174628793026227
aF0.00010388203864746573
aF0.001058225541879893
aF0.0
aF0.0002683202750941498
aF0.0029238506060387647
aF9.389737486414224e-07
aF6.111470930290698e-05
aF0.01865655216623524
aF0.0028266277510246326
aF0.0036211160187589555
aF0.02228667665045243
aF0.0009319944818733287
aF0.001271764123873382
aF0.00010959748194971052
aF0.00016586777228774148
aF0.002769679834153349
aF0.001750195779154918
aF3.2696407318763814e-07
aF4.81841792065993e-07
aF7.566337858567968e-05
aF3.1385860620473974e-06
aF0.0002356180883086684
aF2.2028834885021004e-05
aF4.756852584055947e-06
aF0.0017051968101837631
aF0.0004440930253332596
aF0.01265422162647777
aF0.0026921571109533153
aF0.00016358663719177535
aF5.8134500317003474e-05
aF0.002023042331064739
aF0.004740715326968036
aF0.012531725059935073
aF0.007557769984900113
aF0.0
aF0.0
aF0.0016610530708364175
aF5.5811169479339476e-05
aF0.0014204150807830428
aF0.0019608993146991703
aF0.0025535817004496354
aF0.002759594910368504
aF7.768813582912684e-05
aF0.00030236853389899366
aF1.5185317083291902e-06
aF0.011566346868580856
aF0.0017351833528640812
aF0.000697329047020793
aF0.0066744125562648625
aF0.0007553186088896476
aF0.00157378702949807
aF4.117056184217362e-05
aF0.00044894463157357887
aF0.000474442442447081
aF0.0015085815237425122
aF0.005375495747659502
aF1.7252094855303205e-05
aF0.0006814862577100999
aF5.389225185937089e-05
aF3.128734918699544e-05
aF0.0
aF0.0
aF0.003258057807905583
aF0.004070610943823687
aF0.0005786515002796775
aF1.2000448939013935e-05
aF0.06595521720012727
aF0.03449315473644664
aF1.742255519814301e-05
aF8.671676476226488e-06
aF0.005820911452761286
aF0.010888947281677422
aF0.00530423379085633
aF0.004560431845586103
aF7.709858188154343e-06
aF0.0
aF0.0004507094295204722
aF0.0007388276341494435
aF1.2735194134165304e-05
aF0.025184819078483706
aF5.470724103695741e-06
aF0.0012580260306187443
aF0.0001861999281113144
aF0.00016673597577479484
aF0.000801203101401343
aF0.00030171517402366644
aF0.0001747796797352334
aF0.0027392140499691176
aF0.0
aF0.018034592773138593
aF0.0012181648139172694
aF9.63683584131986e-07
aF0.00010096519203075137
aF0.0003666256989840761
aF5.245009138345077e-05
aF2.5940606367229094e-06
aF3.613679412066519e-05
aF1.0081681960801539e-05
aF0.0008454729078095783
aF0.0010021752158932472
aF0.0008977548388946734
aF0.00045722144076526224
aF0.0023212475360756242
aF0.00011123571536149716
aF1.1647771285074223e-05
aF0.0003808367816797851
aF0.00016990814252760788
aF5.8638898683109805e-05
aF0.0003472436335729879
aF0.029908405376686993
aF0.04613762198090465
aF0.00035185166033789567
aF0.0004536483241489049
aF0.002733683560129489
aF0.0004040031088845414
aF5.994171434444313e-06
aF1.8888780743964412e-06
aF0.0010212781080363744
aF0.03570145023439174
aF0.0014335369857620694
aF0.0028892387186692484
aF0.0008373769088676087
aF0.0
aF0.0004252003033706743
aF0.0052217963580319824
aF0.0
aF0.00020028367850231902
aaa(lp28
S'N51282.graphml'
p29
a(lp30
F8.986211831711991e-05
aF0.0003407659341356442
aF0.00782163409185753
aF0.0025858518591628738
aF0.0008289321648421084
aF0.004820301909585872
aF0.00023549249607334415
aF0.00023661710802814253
aF0.0002739011650886957
aF2.8674107834427995e-05
aF1.80038175010539e-05
aF0.00839473157318258
aF0.004273760897242258
aF0.0
aF0.00604761482376748
aF0.0005436065916693752
aF0.0005986712030693016
aF0.00039752084562413035
aF0.002035784073973509
aF0.007082104746620438
aF0.007996819361331422
aF0.01034064998955909
aF0.0004062248442310436
aF4.4726167512007356e-05
aF0.0001240375751344436
aF6.910573066786556e-05
aF1.6875310881993227e-05
aF5.7412781669282346e-05
aF0.000773756415972735
aF0.00232582576792056
aF0.0005041462156488534
aF0.005230379255906569
aF0.0001531595666571581
aF0.00040021205494449806
aF5.7213484620471075e-05
aF9.943270873611688e-05
aF1.3830012588195566e-05
aF0.0012303157574834493
aF5.730908230633712e-07
aF0.0027480217804149412
aF0.00048551660073418523
aF0.0015058771969651797
aF1.1514713206205874e-05
aF0.0
aF0.0005235366120517736
aF8.200410867457502e-05
aF0.0002353696762422092
aF0.000921128297424509
aF0.016739290353931274
aF0.016177377504898106
aF0.004044696819599925
aF0.0
aF3.117259681362776e-05
aF2.901300619942956e-05
aF0.005882943840817072
aF3.756811970027006e-05
aF0.0
aF0.0009569813820207524
aF0.0014991177661987734
aF4.7555878927014755e-05
aF0.0004795415912534304
aF0.0008600150798960038
aF0.016552152635712657
aF0.009704568536262427
aF0.0
aF5.7191003988075e-07
aF0.004660143973696422
aF0.002845110727988371
aF0.001021965864364855
aF0.0017978319188532218
aF2.070318775011127e-05
aF3.565417118271988e-05
aF0.0035918961739084517
aF0.00039085425476149304
aF0.001575200496948796
aF0.0085136238592883
aF0.0032734675832880584
aF1.8998674458196825e-05
aF0.0016620332401095321
aF0.0021039784994206384
aF0.016597168481197747
aF0.0005729357396243726
aF0.009129596141630305
aF3.266684773617105e-05
aF3.168149188497175e-06
aF0.0247189794895019
aF0.02771063579532977
aF0.0
aF0.0005665624080067808
aF0.0004478605625837477
aF0.0009811175920040212
aF0.0002467950193300456
aF1.3942275510753962e-05
aF0.0
aF0.0
aF0.0029932444746630037
aF0.00013107511298185066
aF0.0030220258941792166
aF0.0001469006206957145
aF0.0
aF0.0
aF0.0035672320774316002
aF0.0024237729584211487
aF0.00013864837980193847
aF0.00013453200367406936
aF0.0013885348925250795
aF0.0001528655750246471
aF0.00247220904757284
aF0.0012952924516133222
aF0.001386821871363296
aF0.00035911185024098895
aF0.0
aF0.0008342658369024054
aF0.008271532838619594
aF3.709227831842764e-05
aF0.0005706584748774308
aF0.00522711859418393
aF3.6681086203001995e-05
aF0.002406178941049252
aF0.0007046118278861175
aF7.470472984777977e-05
aF0.0003356208174335082
aF2.9583560104813686e-06
aF6.419596063365814e-05
aF0.0010189521585823819
aF2.772345809078971e-05
aF0.02797798882155891
aF1.9293518089904575e-05
aF0.001324131642056095
aF0.0001193177253622942
aF0.00014922789030199888
aF0.00018770669630217962
aF0.003954088784502754
aF0.0033071528744859024
aF3.5886608144734144e-05
aF1.0154469310412665e-06
aF3.8756102112152683e-05
aF3.3681182513821565e-06
aF4.1472476589691694e-05
aF0.0003672076013843619
aF0.00012546868293039144
aF7.76060090637121e-06
aF2.2397920966107032e-05
aF0.0
aF5.4612677754629645e-05
aF4.7048497529558524e-06
aF2.544921894011542e-05
aF0.0008689166666435308
aF0.0003792510090917843
aF5.5839819341164196e-05
aF0.0003602682343865308
aF0.0
aF2.086811491012736e-05
aF9.082419167254743e-06
aF0.0021692540402292334
aF0.0034792894594966738
aF0.0009002802856457795
aF2.6874668952630635e-05
aF0.0020356289838081073
aF0.0003193368940155177
aF0.0010826153561825712
aF0.003149084133047707
aF0.007093526142830444
aF1.0025831195238251e-05
aF0.000522938185612774
aF0.002786836001548159
aF5.330548682594255e-06
aF0.0
aF0.0005885533920975528
aF0.00011222986388634297
aF0.024890359933855723
aF6.952002452970181e-06
aF0.0
aF0.0
aF7.528375257786759e-07
aF0.00018075990582437453
aF0.0003015071531091859
aF0.00035987634498614135
aF0.00013359251412779137
aF0.0001251686947837928
aF0.0031288355277796147
aF0.0017314398382914636
aF6.926286113348261e-05
aF4.410724030534445e-05
aF0.00022802121337035648
aF2.85637882459023e-05
aF3.888740936202199e-05
aF0.0009388532673961125
aF0.0032831295913060684
aF0.0001927749673821605
aF0.0006439551488034322
aF0.0055544695514333315
aF0.003432574044213551
aF0.00193966004923033
aF0.00037708290267636805
aF0.0003050487224050409
aF0.0003097944242114645
aF0.00020050376284044062
aF4.976585123213976e-05
aF0.0006366137108453953
aF5.906447773712173e-07
aF5.080923585964661e-06
aF4.307809183958775e-05
aF0.0
aF0.00025144594373704645
aF0.0005604696806917838
aF0.002373898622383259
aF8.032211760194432e-07
aF0.00024378816535126934
aF0.0013771519261508935
aF0.0
aF0.00020962823083109738
aF0.01667063622241929
aF0.0018493453263792347
aF0.010238554152356335
aF0.01093308315368974
aF0.0014929436741319207
aF0.00165481766670527
aF4.718227567185077e-05
aF0.0003367081642931809
aF0.0034236426138764694
aF0.001752018053233959
aF5.906447773712173e-07
aF0.00011943241236989049
aF2.593185382535881e-05
aF1.8043658015772702e-05
aF2.751120993087174e-05
aF2.1930564420484036e-05
aF0.0008433825425557316
aF0.0014360288301695373
aF0.002454574644268892
aF0.024585293431643514
aF0.001766475649209286
aF1.4360774979221753e-06
aF8.199766104829385e-06
aF0.00185985810313731
aF0.00537996092320687
aF0.010143008444667291
aF0.018799519907293342
aF0.0
aF5.471765695606862e-06
aF1.590367821413701e-05
aF9.282069466277723e-05
aF0.0016836187382073696
aF0.00019769367778226717
aF0.002239657274048417
aF0.0007515521741593161
aF3.916176334186175e-05
aF0.0002274918243303184
aF3.459070451028069e-06
aF0.004440194083578128
aF0.00041840578745402885
aF0.0038073184783949114
aF0.0016660966167852402
aF0.0002661032964363982
aF0.0020327717860725352
aF0.00010001568717025124
aF0.0003297001866804952
aF0.0004509572695344743
aF0.0007956767403521824
aF0.0037754732080433452
aF5.443957295658861e-05
aF0.00045178540027713296
aF1.3900474560906755e-05
aF0.00014145983364863255
aF0.0
aF0.0
aF0.0044346268997002775
aF0.0015455380729590157
aF0.000135039384264617
aF0.0011308273043593776
aF0.046321660535860426
aF0.03203194496536132
aF4.611461037467222e-05
aF0.0001586847146534842
aF0.004636308500410171
aF0.006489016426733574
aF0.002587885516616858
aF0.0015229490299371853
aF0.0
aF5.242125115937657e-06
aF8.146247308272119e-05
aF0.0006027007644530998
aF1.220665873233849e-06
aF0.04743716051855134
aF0.001704805735008418
aF0.00017917237880206826
aF2.9735289911339092e-05
aF0.00033134137349017924
aF0.000928368664260085
aF0.0024153109260812173
aF0.00048131215337198375
aF0.016267487237679346
aF0.0
aF0.017292986887098696
aF0.0023980140617915406
aF1.3722514147539637e-05
aF0.000452684644909645
aF0.0001535498573421761
aF6.564203075623434e-05
aF1.8566757094562046e-05
aF7.98479724884101e-05
aF0.0004159677098959912
aF0.0006939383937082388
aF0.0006636116574071724
aF1.938427458142787e-05
aF0.0009515732961278886
aF0.005496175378261126
aF9.414564260980391e-05
aF0.00014054443272712737
aF5.0438643501837544e-05
aF0.00012345625758267004
aF0.00013302941585637687
aF0.0004897403320539161
aF0.04278995808492605
aF0.024164490803400412
aF0.00014999086104012407
aF0.00016015197006309423
aF0.002689002896378911
aF0.002118468301772369
aF2.9968782666236274e-06
aF9.354154599257672e-07
aF0.0004917653353777392
aF0.04624175928141581
aF0.00857041816610852
aF0.005462633569133763
aF0.0033051223143180644
aF0.0
aF0.0002630250883611999
aF7.594775395941452e-05
aF5.985386779286322e-06
aF9.842080837081947e-05
aaa(lp31
S'N51388.graphml'
p32
a(lp33
F0.0033227732762479553
aF6.928565857440413e-06
aF0.003905668323672873
aF0.006084359325976356
aF0.0004826892932572871
aF0.0008882292703387184
aF0.006409653713179945
aF0.003964416523567703
aF0.00035939601008833826
aF0.0
aF1.7591949349546649e-06
aF0.0030105706753671933
aF0.0052280837465622804
aF0.0
aF0.0022197319911186407
aF0.0005327669867564986
aF0.0005951288143389318
aF0.0006610032462441828
aF0.006846712813437918
aF0.0037842862025801874
aF0.012723433426898868
aF0.0045916834434884665
aF0.00019630624059475472
aF1.9023721696043073e-05
aF0.0009486954653528609
aF0.0012727665818619523
aF1.4615263435111485e-05
aF5.049138350535637e-05
aF0.00028310812711778555
aF0.0005293389506536352
aF0.0017109691683948737
aF0.002588646327387114
aF1.967515160807853e-05
aF0.0006233278782309795
aF0.00019189462231771748
aF0.0007625771644495822
aF7.792628459254085e-06
aF0.0006516092576268126
aF9.94981780638904e-06
aF0.0046219187538089745
aF0.0021880694471972466
aF0.0008611236094360174
aF0.0
aF6.866245536940401e-06
aF8.239494644328481e-06
aF7.786784408882574e-05
aF4.122792523562725e-06
aF7.638054922923221e-06
aF0.008144368230250396
aF0.016446174783378318
aF0.004671553508566896
aF0.0
aF0.00018978855389221476
aF4.099762578583852e-05
aF0.0015776675777228642
aF0.0001144319242332011
aF0.0
aF0.004888909593912717
aF0.002923208322139211
aF1.536449332568236e-05
aF0.0011405343661037373
aF0.0047296612689255845
aF0.009117972598168976
aF0.024980194522202463
aF4.782373210574128e-05
aF0.0007964245388573019
aF0.0072089079306676416
aF0.01530211037772064
aF0.0036924948106455547
aF0.0024514646168487734
aF9.52891343729981e-07
aF0.0013950865485513986
aF0.006385061714335069
aF0.007407329736597632
aF0.003290418995796343
aF0.005197369208518311
aF0.001644247858155051
aF0.00011592779783734184
aF4.321130654099053e-05
aF0.0012778572361666226
aF0.013008504520637423
aF0.0002769969336421824
aF0.017064197707697196
aF0.0007189928277240427
aF0.000102704221661401
aF0.01794270514113803
aF0.028414358252057546
aF0.0
aF1.9610741706501624e-05
aF2.8397236929482983e-05
aF0.0
aF0.001979669567670398
aF0.000102679966538459
aF0.0
aF0.0
aF8.548091861291395e-05
aF0.00017413113006865577
aF0.0
aF1.220665873233849e-05
aF0.0
aF0.0
aF7.981010096599416e-05
aF0.0003223553381679823
aF0.0012059864771203372
aF0.00017186562659326883
aF0.0002333311901441345
aF2.6562455888676298e-05
aF0.002004397479676132
aF0.0023327703407126092
aF0.00015373244390389556
aF0.0003146128673504065
aF2.31286220280186e-06
aF0.001284356411392997
aF0.0003876674310423509
aF0.0012551303960821234
aF0.001539159114350828
aF0.002014116712331623
aF0.00033403434222532857
aF9.863416207827084e-06
aF3.595594381384642e-05
aF0.0001169293214196165
aF0.00012513208513576925
aF2.9083479856511533e-06
aF3.6633920029638e-05
aF0.0001011497027812106
aF3.499599326454829e-05
aF0.029634884498860706
aF5.774334785547555e-06
aF0.00039994364701896856
aF3.1325520816374974e-05
aF0.0001172439271617491
aF0.0015224906653134524
aF0.00035746653552127237
aF0.0021499003519853933
aF0.0
aF0.0
aF0.0
aF0.0
aF0.0
aF0.0
aF3.098194668183439e-06
aF0.0
aF0.0
aF1.2012902244523594e-06
aF0.0
aF4.560759607943414e-06
aF2.612281119974508e-06
aF0.00039796640235347284
aF7.483140801128883e-05
aF4.942223470469531e-05
aF0.00016643733788864712
aF0.0
aF0.0
aF2.9569977511066206e-05
aF0.0007933356374118744
aF0.0026504687716830608
aF0.001786721629440524
aF0.0028957211537413837
aF2.3046030548508675e-05
aF0.0007350631869989772
aF0.0006738346684315383
aF0.009519181905081848
aF0.000844852241805764
aF0.0
aF0.008570166016280743
aF0.0016940438868852169
aF1.5483056881018186e-05
aF0.00020558740082302014
aF0.00018793473798792333
aF0.0011273576399584418
aF0.011591572956680231
aF7.386328825460509e-05
aF0.0
aF1.341811020303199e-05
aF0.0
aF3.794842892480242e-05
aF0.00024993858269521267
aF0.000804105511137158
aF0.00036096391050920027
aF0.0
aF0.002363010059280651
aF0.001119652902954615
aF4.768811125690175e-05
aF5.3478183515895905e-05
aF1.113367411291635e-05
aF1.240196858099023e-05
aF0.0016263737714553865
aF0.0019747647555443293
aF0.0017204249691312643
aF0.0003850733909987889
aF0.0007615269074458346
aF5.6649317155466026e-05
aF0.0011003229968570216
aF0.0017360774295994616
aF4.8882970083726475e-06
aF0.00013685503718776146
aF1.676921477733045e-05
aF0.00010859358894289166
aF0.0007099825953059133
aF0.0018106289125309164
aF0.0
aF0.0
aF0.0
aF0.0
aF3.9651420443962994e-05
aF0.00036526451165111277
aF0.00031974655746986415
aF0.0
aF3.03688124681664e-05
aF0.0032177705907041943
aF0.0
aF0.0001515168841517925
aF0.01614814580445455
aF0.0016094004988571043
aF0.018233464030674263
aF0.013370293924216028
aF0.0009158817960414057
aF0.0008538971154500784
aF0.0
aF0.0
aF0.0012136626709977792
aF0.00235803868844509
aF0.0
aF3.573924635025755e-06
aF5.163216874665847e-05
aF8.285062488012548e-07
aF1.0770581234416316e-06
aF0.00021538216715666556
aF0.00018450423548548988
aF0.0005516409588155527
aF2.636767187284153e-05
aF0.01674887414504025
aF0.002557089024921308
aF0.0005721396306225073
aF0.00022405541402328839
aF0.0030520659908908647
aF0.014320624457238713
aF0.016535789205587424
aF0.016597417725279773
aF0.0
aF1.7591949349546649e-06
aF5.896812194553446e-05
aF0.0015351567748891051
aF0.0138461230512789
aF0.0032675455813374697
aF0.006659958330372748
aF0.0011056775045234554
aF0.00017989549838746363
aF0.0001300943992803719
aF0.00011088785868280961
aF0.0038459621728170407
aF0.0002869312616374237
aF0.0002030447979465297
aF0.008522966773699429
aF0.00024127448972720747
aF0.0014883447732153515
aF0.00021668286615399737
aF0.00010979713368236858
aF0.0006311946469777916
aF0.0012789054077873819
aF0.0025152126480834126
aF0.0001346042235926926
aF6.467460328379089e-06
aF6.80403407186596e-05
aF0.00010891170764035472
aF0.0
aF0.0
aF0.005404768601698148
aF0.0027553950771325984
aF1.0361466133264068e-06
aF1.3078562927505526e-06
aF0.07539621910378291
aF0.06044229112968235
aF6.652522868618752e-06
aF1.1297287675701478e-05
aF0.0076260949520312584
aF0.0030305860824729825
aF0.009987105987793827
aF0.011118716749576218
aF6.077994679098011e-06
aF1.7390671569006542e-06
aF5.060677266115333e-06
aF0.0030135665970878207
aF4.492281918255874e-05
aF0.03033415332172053
aF0.0008739832604693939
aF0.0003237027377699969
aF0.0017452081829007285
aF1.5862935228125278e-05
aF0.0007072710964761287
aF0.004716594074586286
aF0.00062851502525357
aF0.014476416131801092
aF0.0
aF0.013476762401918013
aF4.410337659548292e-05
aF0.00029885964270126374
aF0.0005789577933930773
aF0.0002695408528131408
aF2.3115633367367506e-05
aF0.0
aF4.659583783045238e-05
aF3.6801275848941056e-05
aF9.637134265808159e-06
aF0.0008269199029311316
aF0.0009568802297159286
aF0.0028365139303075976
aF0.0005265502835953126
aF3.830016839688858e-06
aF6.97689355897314e-05
aF0.00015109303385027793
aF8.717391386130831e-05
aF0.0008946431822963361
aF0.00015900892041145517
aF0.04113758475520376
aF0.06749154199350364
aF0.0020279852886228404
aF0.0017468162120482856
aF0.00065617355542314
aF0.0031759810521283286
aF1.5085365430092621e-05
aF1.046285034200442e-06
aF0.0016830560192402293
aF0.037042483750439566
aF0.00048466274680423864
aF0.000861036170808782
aF0.0002697511117113571
aF0.0
aF0.00022060148409891277
aF6.865490248731597e-05
aF0.00010106617155170979
aF0.0001375853925490483
aaa(lp34
S'N51392.graphml'
p35
a(lp36
F0.0011590292123116845
aF0.001850050724024622
aF0.0024937334190022844
aF0.001920039800728792
aF0.0014380708427820588
aF0.002243522058406644
aF0.0001254765763540616
aF2.4498583234539357e-05
aF0.00011218663056848152
aF2.563498560762662e-05
aF0.0
aF0.009864436848518494
aF0.0018714350007703025
aF0.0
aF0.0036301666514368825
aF0.0007257646279057361
aF0.00010891774453101377
aF0.00017772366739045767
aF0.006831180182356371
aF0.0011565834387276693
aF0.008666016230647753
aF0.010523558743263656
aF0.0019268729363284384
aF0.0002931342590839394
aF5.855640901074799e-05
aF2.21386685626457e-05
aF2.193922269638501e-05
aF0.00022854888383185145
aF0.0006866811903863164
aF0.001279379066897622
aF0.0009416446691690248
aF0.005807928098822754
aF0.00025934684684227505
aF0.0005153971411666251
aF0.00020872751063543722
aF0.0003574412495061287
aF3.602682313747424e-05
aF0.00044431903300910536
aF2.4103614949786974e-05
aF0.003851814871768647
aF0.001774612409650004
aF0.001826880159029592
aF0.00018705775118301552
aF0.0
aF0.0004075288276349329
aF0.00011134734807359557
aF0.00018751623680156077
aF4.532448978818869e-05
aF0.030550852791829945
aF0.012233676988858773
aF0.006107073252302763
aF0.0
aF0.00045191555971965105
aF0.0001114675153310394
aF0.0029298685744847787
aF0.0
aF0.0
aF0.000564092146339485
aF0.0014357264036614988
aF8.40616141613324e-06
aF0.0012989483421845232
aF0.0028031493028745627
aF0.01819626719364185
aF0.033479141403849264
aF1.2443012568961865e-05
aF0.0
aF0.0023309705272503345
aF0.00311955674330887
aF0.0010191256925392294
aF0.002142478113993157
aF2.7732414203566734e-05
aF0.00048735971802222835
aF0.0027692854279423415
aF0.0008044186056934131
aF0.0011901367691265206
aF0.0065805857678414206
aF0.002008791081037669
aF2.0303538520507525e-06
aF0.001272198239850669
aF0.0007121160912894459
aF0.017298443909941
aF0.0001564278445074409
aF0.007396067639494246
aF0.00019272043286431358
aF3.7712256426479965e-05
aF0.05454053345512823
aF0.01780905690741528
aF0.0
aF0.001442183658525963
aF0.0005421673890854264
aF0.0003027929014030128
aF0.00018706436123511097
aF0.003877372473376112
aF0.0
aF0.0
aF0.0004870868280295605
aF0.0005378912917162945
aF0.0001466916653198684
aF5.014524756215188e-05
aF0.0
aF0.0
aF0.0021486416240643256
aF0.00441513898483532
aF0.0007292229613755712
aF0.0002100543215334295
aF0.000165113502952681
aF7.621767361324103e-06
aF0.0006514468240032285
aF0.0019690796919022095
aF0.002820898866759824
aF0.0002717903668354405
aF0.0
aF0.000991933075351238
aF0.003631345282010638
aF0.00012155965097626991
aF0.0005910092861724107
aF0.0047849961463203375
aF9.248435930885371e-05
aF0.0013676022874698928
aF4.637788292748535e-05
aF6.787368808319099e-05
aF0.0003463306738468459
aF1.7025636970266118e-05
aF0.0007688249468858497
aF0.0014631831689682193
aF0.00018044993989838125
aF0.044993663739774294
aF2.050163333816761e-06
aF0.0005745029705007874
aF0.00018415009021857467
aF0.006806496273198503
aF0.00012657589949160666
aF0.0013495945274425141
aF0.000861913459255937
aF0.0
aF1.1488619983377403e-06
aF7.113090072714695e-05
aF2.156349381748453e-06
aF0.0006198199126962323
aF0.0005165110292302097
aF0.00012322139425578778
aF0.00011034306294090489
aF0.0
aF1.0122987929434798e-05
aF1.203810238803395e-05
aF4.974757929254915e-06
aF3.695129388240817e-05
aF0.0004045666530880315
aF7.44725991419414e-05
aF3.0741973687212024e-05
aF0.0002801397897963577
aF7.3557123637027525e-06
aF3.7639343454557014e-05
aF4.104706646989568e-05
aF0.0023844131376070344
aF0.00400988338867176
aF0.0036210853351161167
aF2.294793457630742e-05
aF0.008877660666751594
aF0.00019962470738166287
aF0.002295465322524841
aF0.0031708521078231758
aF0.0102114381138733
aF2.07322467404646e-05
aF0.00026450824039833166
aF0.008533636425666732
aF2.4187825000409643e-06
aF7.818941849694431e-07
aF0.0003293125908822816
aF6.461136948363963e-05
aF0.024020382572791276
aF0.0
aF0.0
aF0.0
aF1.1652534357164157e-05
aF0.0004389754201670452
aF0.0004282281134586788
aF0.000310772558867448
aF0.0
aF0.0
aF0.005931416129051243
aF0.001155225870042596
aF8.355869498123726e-06
aF8.777643167487484e-06
aF0.0023612501777444564
aF3.947290139614979e-05
aF0.0003471253158758334
aF0.0024970795395398413
aF0.0032629297753756334
aF0.0002666016189722595
aF0.0012017661327851604
aF0.006343381735709488
aF0.0011358714775564942
aF0.002238202969511181
aF0.0012133317183724965
aF0.000688365482645628
aF0.0012016888229537997
aF9.381543453299984e-05
aF3.73051627603398e-05
aF5.8146125036030576e-05
aF1.8764230466908373e-05
aF1.1344640918880753e-05
aF3.182450312359678e-06
aF5.523015938026273e-06
aF0.00022519542285252575
aF0.0006539075799287577
aF0.000855920015587969
aF1.2812233803524952e-05
aF2.161700430806537e-05
aF0.001858369028563061
aF0.0
aF7.967871718577022e-05
aF0.01818990456287383
aF0.0011547876918763873
aF0.012491171442741903
aF0.008652312466912221
aF0.0010106943237420153
aF0.0005020285659749882
aF3.1434440720495735e-06
aF1.7150212857178188e-06
aF0.004691408112590147
aF0.0022155542885293296
aF6.935626954808308e-05
aF1.6879680053520497e-05
aF0.00017461030851180276
aF4.045284726118619e-05
aF0.00010821569419461315
aF0.0001085228078409465
aF0.0008871460005802822
aF0.000425631272900683
aF0.00018183103275115002
aF0.023618990633665585
aF0.0008534614629154254
aF0.00021984438236975298
aF2.7540249847101488e-05
aF0.003018977347256698
aF0.009929384886914444
aF0.013536345545047235
aF0.007946435382343565
aF0.0
aF0.0
aF1.761911816547513e-05
aF0.0004852995667679287
aF0.0017323851864909031
aF0.005225658599075815
aF0.00048816545525774165
aF0.0027495309182196982
aF2.3924441646443934e-05
aF2.3679309557809356e-05
aF4.8402052299803575e-05
aF0.0047058456167645615
aF0.0005625886426974809
aF0.004796788638453558
aF0.0012225186306271557
aF0.0007771853208939231
aF0.0007161629960753853
aF7.377152188945991e-06
aF0.0005062978516000977
aF0.00034094078412015815
aF0.0011228127457907154
aF0.0028207042459854645
aF1.154096774951469e-05
aF7.580957578902221e-05
aF5.579192565832738e-06
aF4.227675974413023e-05
aF3.800199537109257e-06
aF0.0
aF0.004959489213412228
aF0.0036407762367492084
aF1.995160382966205e-05
aF0.0004855881936768598
aF0.033131661511925335
aF0.01638729488985838
aF6.387492207848173e-05
aF1.0972282626556984e-05
aF0.0029384304239388065
aF0.007647003454082318
aF0.005149233875689309
aF0.006605116518208804
aF6.539281463752763e-07
aF3.2562268211815035e-06
aF0.00034427465199896094
aF0.0007367028061674424
aF4.4408007877152375e-06
aF0.030947793318643835
aF3.1418906387847186e-05
aF0.00019842185242053442
aF9.837177827431832e-05
aF0.00042740212172457363
aF0.0005586311084830449
aF0.001973469032277723
aF5.917337071397304e-05
aF0.009956898331211918
aF0.0
aF0.021335493229445678
aF0.00041265084867474997
aF1.635359345456364e-05
aF0.0004863161047674685
aF0.00010175156952491629
aF9.627391263355832e-05
aF6.812341643821005e-05
aF2.7421884475866896e-05
aF0.00045452034917084803
aF0.0001744970589710298
aF0.0001796094164165527
aF3.001648047892945e-05
aF0.0010069510932190532
aF0.0017721656621509823
aF1.1055463813546972e-05
aF0.00023502085413866286
aF0.00029858424594349947
aF0.00021034252613224565
aF8.055146152288537e-06
aF0.0008440479725636029
aF0.05574813527998114
aF0.026391982026814444
aF9.760638045492139e-06
aF0.0004322028839271372
aF0.005367290632535623
aF0.0010274516474022245
aF7.551313118857356e-07
aF1.5367423295375297e-05
aF0.00018265143610176726
aF0.04684839508507538
aF0.00036992161038609746
aF0.0006080447832232977
aF0.0023524138205269513
aF6.314637135555982e-06
aF0.0006628379249240191
aF0.00012377666333605688
aF2.8670028728225265e-05
aF3.1299551109101645e-05
aaa(lp37
S'N51393.graphml'
p38
a(lp39
F0.0016365387962040412
aF0.0007331079385346019
aF0.004169860730085971
aF0.013519890631791522
aF0.0005174582098421243
aF0.0018000270830811549
aF0.007514316601440292
aF0.00044385677799657966
aF0.00011345402825136403
aF0.0001263257076365021
aF3.754168955803057e-05
aF0.002045992905716852
aF0.0029697553673215696
aF3.8145808538557783e-07
aF0.0010505206744669572
aF0.004817006035668578
aF0.00042456189130111164
aF0.0004932805099290314
aF0.0017423203683467482
aF0.00287594217671234
aF0.008721486711365863
aF0.007404771939550228
aF0.0002520842852139383
aF0.00022636958353124774
aF3.276185911276349e-05
aF5.269321481885298e-05
aF0.00013137406708805236
aF1.5097083032331171e-05
aF0.0007085006305229443
aF0.0021592888169099556
aF0.0014868517662896777
aF0.00421792665113296
aF0.0002097723246575899
aF0.0003101374480286
aF0.00028457252057677464
aF2.7150448427717755e-05
aF0.0
aF0.0005937433340086096
aF0.0006050224252773357
aF0.003112672379172927
aF0.00068565056780082
aF0.0033196380315016253
aF9.942563381194533e-05
aF0.0
aF0.0004985454778781922
aF0.00017682080468326778
aF0.0009288439602590222
aF0.00034080556708715616
aF0.01821301069721218
aF0.009790259424521905
aF0.0043151092910325576
aF0.0
aF6.50501409820009e-05
aF0.0001184467878462473
aF0.0020661057624926527
aF0.0
aF0.0
aF0.001346962886120782
aF0.0043301941347389005
aF4.463696141218501e-05
aF0.0004999593360228805
aF0.008034972765405735
aF0.02000627897275237
aF0.0294316672760463
aF5.999985562171171e-06
aF0.0
aF0.00982420473409399
aF0.008524243840241799
aF0.00045129862991776274
aF0.00129893628045487
aF1.1801808567330018e-05
aF0.00033911682694199034
aF0.004459025734057189
aF6.29830487243942e-05
aF0.001298778639150392
aF0.011182187708696101
aF0.004284394435539699
aF5.961485628844598e-06
aF0.000842308886300718
aF0.002149196530761722
aF0.013240310831215402
aF0.0008127791727390679
aF0.01730792252548118
aF0.00021842567340077423
aF0.0
aF0.05027881839305903
aF0.016718335395267347
aF0.0
aF0.0004822961770207859
aF0.000681485446406496
aF0.0002846761040864612
aF0.0004168418551773343
aF3.255089894755622e-05
aF0.0
aF0.0
aF0.00033383175251859234
aF0.0001412215455398303
aF8.283089854086831e-06
aF4.799577583555529e-05
aF0.0
aF0.0
aF0.006208453029316433
aF0.0027574504150719684
aF6.102760897050062e-05
aF0.0006459977204654845
aF0.0001355214176124262
aF0.0001716789763324554
aF0.0005238241881073713
aF0.0029993531415499594
aF0.0031371974231845677
aF0.0006362447593697115
aF1.6905246121752726e-06
aF0.0008314375122764609
aF0.0023913444636080214
aF0.00016285526882107548
aF0.00019588422903634502
aF0.0013350698119140134
aF0.00012929343765127633
aF0.0007282357380291903
aF0.00042607197510287066
aF0.00018967388152418181
aF0.001032666153181536
aF1.569427551300663e-06
aF0.00033314316775208993
aF8.266901253389037e-05
aF0.00021072251270094883
aF0.010401736994500291
aF3.0338878359247603e-05
aF0.0009631775423876859
aF0.0010109189833547626
aF0.0002991001777573784
aF5.988869845080086e-05
aF0.0044809087918315366
aF0.005273742929383271
aF0.0002686249503065338
aF0.0001606409039499151
aF1.4636510862443488e-06
aF4.01266931671077e-05
aF0.0001759561806070821
aF0.0004040941295185826
aF0.00014653897869442833
aF1.5195995545216146e-05
aF3.5317712844101497e-06
aF4.9648211649707515e-05
aF4.544805747363237e-05
aF9.640370218357202e-05
aF0.0014977023097291645
aF0.00024177948446600455
aF0.00010842586346550039
aF2.1502656157681427e-05
aF0.001571588108534155
aF7.681044874412805e-06
aF4.86367019166533e-06
aF4.052790615729959e-05
aF0.0030312008719310737
aF0.00269493541959521
aF0.0008344822595410321
aF7.994172875186194e-05
aF0.0003151113554510782
aF0.009631632008264833
aF0.001701760955076665
aF0.005022396127357128
aF0.003809257459434843
aF1.236987862613968e-05
aF0.0005786595043643808
aF0.0035307319355874175
aF8.233467896885902e-05
aF0.0
aF0.00014706398465763742
aF3.376290299943736e-05
aF0.02155883867740783
aF1.793799241132179e-05
aF1.099255557885321e-06
aF1.153930162498094e-06
aF0.00043057780710058566
aF5.250433142239942e-05
aF0.00041068214615049036
aF0.00017957484268741063
aF1.6236672363732885e-05
aF3.5296634183635134e-06
aF0.0019389371699384452
aF0.00135390904142902
aF9.357553596860013e-05
aF4.2568895233983436e-06
aF0.000325482921101299
aF3.784753753721154e-05
aF6.49222388020466e-05
aF0.0018233359934762914
aF0.003539636933978335
aF3.9258997400449296e-05
aF0.0013844567110431764
aF0.003578153749000545
aF0.0014582299211828148
aF0.0019349536991161928
aF0.000877158648142251
aF0.0005449457521280424
aF0.00022025659848207482
aF0.00012139028292007403
aF0.000166530303851269
aF0.0008915071714924988
aF3.3246656570004442e-06
aF1.617115148580454e-05
aF4.771294443507569e-06
aF2.2448381755385695e-05
aF0.0006095434256940299
aF0.0006450418995595231
aF0.0032353521314330233
aF2.491594458894974e-06
aF0.0001667326601699981
aF0.0011920233090279674
aF0.0
aF8.521269523718624e-06
aF0.0227298193129458
aF0.0020028417321464606
aF0.026001362120601508
aF0.007923694439856261
aF0.0021538911227170447
aF0.0005840516957743814
aF1.9859796613280905e-05
aF2.5741252980488866e-06
aF0.007674370433414802
aF0.0010838505723409604
aF5.247113660362099e-06
aF1.4188201133598612e-05
aF1.2026610253397164e-05
aF2.4196078717777816e-06
aF2.6432166821477554e-05
aF3.676822804712239e-05
aF0.0003035910804715946
aF0.0006693158817754336
aF0.0020671087562143947
aF0.023958246173259177
aF0.0014415672670163259
aF0.0007501133437529603
aF0.00033388805984798595
aF0.002463583308169288
aF0.0031582009689173074
aF0.010387527809201465
aF0.012257339703910356
aF8.78938784861221e-06
aF2.602890464983943e-06
aF0.0003227035851956345
aF2.873903068754392e-05
aF0.0022838950325549208
aF0.0005570177863800107
aF0.0014258960340062141
aF0.0008677512040438576
aF0.00022177887827233464
aF0.0003296860051209643
aF7.420347447597018e-06
aF0.00488482543393425
aF0.00012213451182254293
aF0.0019304069125791966
aF0.0005570761271024169
aF0.0007151365584609871
aF0.001106795678158036
aF6.613492733747034e-05
aF0.0007858557908727053
aF0.0005962209219664723
aF0.001216024462697792
aF0.007249598021497826
aF0.00010043203188410193
aF3.99744501504953e-06
aF0.00030800706339117307
aF0.0003419174157764824
aF0.0
aF0.0
aF0.0021457410978083565
aF0.0026563026880681087
aF0.0007392997743188757
aF0.0007086056507948249
aF0.047209905839973976
aF0.01724137585802374
aF0.0001192044915008624
aF0.0008368619778163883
aF0.003844019767404067
aF0.008021472922590665
aF0.0032977115997700154
aF0.0046207591667156355
aF0.0
aF1.5258323415423113e-06
aF1.5940091582579495e-05
aF0.0006273894002145373
aF5.761946253859129e-06
aF0.031540306095014944
aF6.29933697960973e-05
aF0.00022117725260428544
aF0.0004953853206958478
aF0.001266470423309374
aF0.00022279969593625674
aF0.00015386121691502195
aF0.0001336324427875472
aF0.01801535608713348
aF0.0
aF0.01814902729762691
aF0.0008582618056048307
aF1.5533363557237106e-05
aF0.001604981648936178
aF0.00017931641649091294
aF4.034362805312445e-05
aF7.008777266187919e-05
aF0.0
aF1.4306325438891054e-05
aF0.0001628317144829376
aF0.00046982839233404973
aF1.933723086977449e-05
aF0.0009720436834687746
aF0.0009449076191513219
aF0.00022414266392351714
aF8.862134602149941e-05
aF3.5799420768822305e-05
aF0.0011591063650291489
aF2.403015946134967e-06
aF4.2558430754822065e-05
aF0.06697206848816016
aF0.02875395377474935
aF4.4803550837903324e-05
aF0.00014349699952724305
aF0.003670938491005279
aF0.001042285324698843
aF8.377386219604693e-06
aF1.2094625526899905e-05
aF0.0005710610777429632
aF0.03698067903586089
aF0.0006616738029090805
aF0.0020608583428576525
aF0.00038216814371259386
aF0.0
aF0.0011048622098971657
aF0.0013839651543262129
aF8.958697415115192e-06
aF3.7508284728355904e-05
aaatp40
Rp41
s.